ARM GAS  C:\Users\Simon\AppData\Local\Temp\cckaAEQd.s 			page 1


   1              		.cpu cortex-m7
   2              		.arch armv7e-m
   3              		.fpu fpv5-d16
   4              		.eabi_attribute 28, 1
   5              		.eabi_attribute 20, 1
   6              		.eabi_attribute 21, 1
   7              		.eabi_attribute 23, 3
   8              		.eabi_attribute 24, 1
   9              		.eabi_attribute 25, 1
  10              		.eabi_attribute 26, 1
  11              		.eabi_attribute 30, 2
  12              		.eabi_attribute 34, 1
  13              		.eabi_attribute 18, 4
  14              		.file	"event_groups.c"
  15              		.text
  16              	.Ltext0:
  17              		.cfi_sections	.debug_frame
  18              		.section	.text.vEventGroupClearBitsCallback,"ax",%progbits
  19              		.align	1
  20              		.p2align 2,,3
  21              		.global	vEventGroupClearBitsCallback
  22              		.syntax unified
  23              		.thumb
  24              		.thumb_func
  26              	vEventGroupClearBitsCallback:
  27              	.LVL0:
  28              	.LFB14:
  29              		.file 1 "Middlewares/Third_Party/FreeRTOS/Source/event_groups.c"
   1:Middlewares/Third_Party/FreeRTOS/Source/event_groups.c **** /*
   2:Middlewares/Third_Party/FreeRTOS/Source/event_groups.c ****  * FreeRTOS Kernel V10.3.1
   3:Middlewares/Third_Party/FreeRTOS/Source/event_groups.c ****  * Copyright (C) 2020 Amazon.com, Inc. or its affiliates.  All Rights Reserved.
   4:Middlewares/Third_Party/FreeRTOS/Source/event_groups.c ****  *
   5:Middlewares/Third_Party/FreeRTOS/Source/event_groups.c ****  * Permission is hereby granted, free of charge, to any person obtaining a copy of
   6:Middlewares/Third_Party/FreeRTOS/Source/event_groups.c ****  * this software and associated documentation files (the "Software"), to deal in
   7:Middlewares/Third_Party/FreeRTOS/Source/event_groups.c ****  * the Software without restriction, including without limitation the rights to
   8:Middlewares/Third_Party/FreeRTOS/Source/event_groups.c ****  * use, copy, modify, merge, publish, distribute, sublicense, and/or sell copies of
   9:Middlewares/Third_Party/FreeRTOS/Source/event_groups.c ****  * the Software, and to permit persons to whom the Software is furnished to do so,
  10:Middlewares/Third_Party/FreeRTOS/Source/event_groups.c ****  * subject to the following conditions:
  11:Middlewares/Third_Party/FreeRTOS/Source/event_groups.c ****  *
  12:Middlewares/Third_Party/FreeRTOS/Source/event_groups.c ****  * The above copyright notice and this permission notice shall be included in all
  13:Middlewares/Third_Party/FreeRTOS/Source/event_groups.c ****  * copies or substantial portions of the Software.
  14:Middlewares/Third_Party/FreeRTOS/Source/event_groups.c ****  *
  15:Middlewares/Third_Party/FreeRTOS/Source/event_groups.c ****  * THE SOFTWARE IS PROVIDED "AS IS", WITHOUT WARRANTY OF ANY KIND, EXPRESS OR
  16:Middlewares/Third_Party/FreeRTOS/Source/event_groups.c ****  * IMPLIED, INCLUDING BUT NOT LIMITED TO THE WARRANTIES OF MERCHANTABILITY, FITNESS
  17:Middlewares/Third_Party/FreeRTOS/Source/event_groups.c ****  * FOR A PARTICULAR PURPOSE AND NONINFRINGEMENT. IN NO EVENT SHALL THE AUTHORS OR
  18:Middlewares/Third_Party/FreeRTOS/Source/event_groups.c ****  * COPYRIGHT HOLDERS BE LIABLE FOR ANY CLAIM, DAMAGES OR OTHER LIABILITY, WHETHER
  19:Middlewares/Third_Party/FreeRTOS/Source/event_groups.c ****  * IN AN ACTION OF CONTRACT, TORT OR OTHERWISE, ARISING FROM, OUT OF OR IN
  20:Middlewares/Third_Party/FreeRTOS/Source/event_groups.c ****  * CONNECTION WITH THE SOFTWARE OR THE USE OR OTHER DEALINGS IN THE SOFTWARE.
  21:Middlewares/Third_Party/FreeRTOS/Source/event_groups.c ****  *
  22:Middlewares/Third_Party/FreeRTOS/Source/event_groups.c ****  * http://www.FreeRTOS.org
  23:Middlewares/Third_Party/FreeRTOS/Source/event_groups.c ****  * http://aws.amazon.com/freertos
  24:Middlewares/Third_Party/FreeRTOS/Source/event_groups.c ****  *
  25:Middlewares/Third_Party/FreeRTOS/Source/event_groups.c ****  * 1 tab == 4 spaces!
  26:Middlewares/Third_Party/FreeRTOS/Source/event_groups.c ****  */
  27:Middlewares/Third_Party/FreeRTOS/Source/event_groups.c **** 
  28:Middlewares/Third_Party/FreeRTOS/Source/event_groups.c **** /* Standard includes. */
  29:Middlewares/Third_Party/FreeRTOS/Source/event_groups.c **** #include <stdlib.h>
ARM GAS  C:\Users\Simon\AppData\Local\Temp\cckaAEQd.s 			page 2


  30:Middlewares/Third_Party/FreeRTOS/Source/event_groups.c **** 
  31:Middlewares/Third_Party/FreeRTOS/Source/event_groups.c **** /* Defining MPU_WRAPPERS_INCLUDED_FROM_API_FILE prevents task.h from redefining
  32:Middlewares/Third_Party/FreeRTOS/Source/event_groups.c **** all the API functions to use the MPU wrappers.  That should only be done when
  33:Middlewares/Third_Party/FreeRTOS/Source/event_groups.c **** task.h is included from an application file. */
  34:Middlewares/Third_Party/FreeRTOS/Source/event_groups.c **** #define MPU_WRAPPERS_INCLUDED_FROM_API_FILE
  35:Middlewares/Third_Party/FreeRTOS/Source/event_groups.c **** 
  36:Middlewares/Third_Party/FreeRTOS/Source/event_groups.c **** /* FreeRTOS includes. */
  37:Middlewares/Third_Party/FreeRTOS/Source/event_groups.c **** #include "FreeRTOS.h"
  38:Middlewares/Third_Party/FreeRTOS/Source/event_groups.c **** #include "task.h"
  39:Middlewares/Third_Party/FreeRTOS/Source/event_groups.c **** #include "timers.h"
  40:Middlewares/Third_Party/FreeRTOS/Source/event_groups.c **** #include "event_groups.h"
  41:Middlewares/Third_Party/FreeRTOS/Source/event_groups.c **** 
  42:Middlewares/Third_Party/FreeRTOS/Source/event_groups.c **** /* Lint e961, e750 and e9021 are suppressed as a MISRA exception justified
  43:Middlewares/Third_Party/FreeRTOS/Source/event_groups.c **** because the MPU ports require MPU_WRAPPERS_INCLUDED_FROM_API_FILE to be defined
  44:Middlewares/Third_Party/FreeRTOS/Source/event_groups.c **** for the header files above, but not in this file, in order to generate the
  45:Middlewares/Third_Party/FreeRTOS/Source/event_groups.c **** correct privileged Vs unprivileged linkage and placement. */
  46:Middlewares/Third_Party/FreeRTOS/Source/event_groups.c **** #undef MPU_WRAPPERS_INCLUDED_FROM_API_FILE /*lint !e961 !e750 !e9021 See comment above. */
  47:Middlewares/Third_Party/FreeRTOS/Source/event_groups.c **** 
  48:Middlewares/Third_Party/FreeRTOS/Source/event_groups.c **** /* The following bit fields convey control information in a task's event list
  49:Middlewares/Third_Party/FreeRTOS/Source/event_groups.c **** item value.  It is important they don't clash with the
  50:Middlewares/Third_Party/FreeRTOS/Source/event_groups.c **** taskEVENT_LIST_ITEM_VALUE_IN_USE definition. */
  51:Middlewares/Third_Party/FreeRTOS/Source/event_groups.c **** #if configUSE_16_BIT_TICKS == 1
  52:Middlewares/Third_Party/FreeRTOS/Source/event_groups.c **** 	#define eventCLEAR_EVENTS_ON_EXIT_BIT	0x0100U
  53:Middlewares/Third_Party/FreeRTOS/Source/event_groups.c **** 	#define eventUNBLOCKED_DUE_TO_BIT_SET	0x0200U
  54:Middlewares/Third_Party/FreeRTOS/Source/event_groups.c **** 	#define eventWAIT_FOR_ALL_BITS			0x0400U
  55:Middlewares/Third_Party/FreeRTOS/Source/event_groups.c **** 	#define eventEVENT_BITS_CONTROL_BYTES	0xff00U
  56:Middlewares/Third_Party/FreeRTOS/Source/event_groups.c **** #else
  57:Middlewares/Third_Party/FreeRTOS/Source/event_groups.c **** 	#define eventCLEAR_EVENTS_ON_EXIT_BIT	0x01000000UL
  58:Middlewares/Third_Party/FreeRTOS/Source/event_groups.c **** 	#define eventUNBLOCKED_DUE_TO_BIT_SET	0x02000000UL
  59:Middlewares/Third_Party/FreeRTOS/Source/event_groups.c **** 	#define eventWAIT_FOR_ALL_BITS			0x04000000UL
  60:Middlewares/Third_Party/FreeRTOS/Source/event_groups.c **** 	#define eventEVENT_BITS_CONTROL_BYTES	0xff000000UL
  61:Middlewares/Third_Party/FreeRTOS/Source/event_groups.c **** #endif
  62:Middlewares/Third_Party/FreeRTOS/Source/event_groups.c **** 
  63:Middlewares/Third_Party/FreeRTOS/Source/event_groups.c **** typedef struct EventGroupDef_t
  64:Middlewares/Third_Party/FreeRTOS/Source/event_groups.c **** {
  65:Middlewares/Third_Party/FreeRTOS/Source/event_groups.c **** 	EventBits_t uxEventBits;
  66:Middlewares/Third_Party/FreeRTOS/Source/event_groups.c **** 	List_t xTasksWaitingForBits;		/*< List of tasks waiting for a bit to be set. */
  67:Middlewares/Third_Party/FreeRTOS/Source/event_groups.c **** 
  68:Middlewares/Third_Party/FreeRTOS/Source/event_groups.c **** 	#if( configUSE_TRACE_FACILITY == 1 )
  69:Middlewares/Third_Party/FreeRTOS/Source/event_groups.c **** 		UBaseType_t uxEventGroupNumber;
  70:Middlewares/Third_Party/FreeRTOS/Source/event_groups.c **** 	#endif
  71:Middlewares/Third_Party/FreeRTOS/Source/event_groups.c **** 
  72:Middlewares/Third_Party/FreeRTOS/Source/event_groups.c **** 	#if( ( configSUPPORT_STATIC_ALLOCATION == 1 ) && ( configSUPPORT_DYNAMIC_ALLOCATION == 1 ) )
  73:Middlewares/Third_Party/FreeRTOS/Source/event_groups.c **** 		uint8_t ucStaticallyAllocated; /*< Set to pdTRUE if the event group is statically allocated to en
  74:Middlewares/Third_Party/FreeRTOS/Source/event_groups.c **** 	#endif
  75:Middlewares/Third_Party/FreeRTOS/Source/event_groups.c **** } EventGroup_t;
  76:Middlewares/Third_Party/FreeRTOS/Source/event_groups.c **** 
  77:Middlewares/Third_Party/FreeRTOS/Source/event_groups.c **** /*-----------------------------------------------------------*/
  78:Middlewares/Third_Party/FreeRTOS/Source/event_groups.c **** 
  79:Middlewares/Third_Party/FreeRTOS/Source/event_groups.c **** /*
  80:Middlewares/Third_Party/FreeRTOS/Source/event_groups.c ****  * Test the bits set in uxCurrentEventBits to see if the wait condition is met.
  81:Middlewares/Third_Party/FreeRTOS/Source/event_groups.c ****  * The wait condition is defined by xWaitForAllBits.  If xWaitForAllBits is
  82:Middlewares/Third_Party/FreeRTOS/Source/event_groups.c ****  * pdTRUE then the wait condition is met if all the bits set in uxBitsToWaitFor
  83:Middlewares/Third_Party/FreeRTOS/Source/event_groups.c ****  * are also set in uxCurrentEventBits.  If xWaitForAllBits is pdFALSE then the
  84:Middlewares/Third_Party/FreeRTOS/Source/event_groups.c ****  * wait condition is met if any of the bits set in uxBitsToWait for are also set
  85:Middlewares/Third_Party/FreeRTOS/Source/event_groups.c ****  * in uxCurrentEventBits.
  86:Middlewares/Third_Party/FreeRTOS/Source/event_groups.c ****  */
ARM GAS  C:\Users\Simon\AppData\Local\Temp\cckaAEQd.s 			page 3


  87:Middlewares/Third_Party/FreeRTOS/Source/event_groups.c **** static BaseType_t prvTestWaitCondition( const EventBits_t uxCurrentEventBits, const EventBits_t uxB
  88:Middlewares/Third_Party/FreeRTOS/Source/event_groups.c **** 
  89:Middlewares/Third_Party/FreeRTOS/Source/event_groups.c **** /*-----------------------------------------------------------*/
  90:Middlewares/Third_Party/FreeRTOS/Source/event_groups.c **** 
  91:Middlewares/Third_Party/FreeRTOS/Source/event_groups.c **** #if( configSUPPORT_STATIC_ALLOCATION == 1 )
  92:Middlewares/Third_Party/FreeRTOS/Source/event_groups.c **** 
  93:Middlewares/Third_Party/FreeRTOS/Source/event_groups.c **** 	EventGroupHandle_t xEventGroupCreateStatic( StaticEventGroup_t *pxEventGroupBuffer )
  94:Middlewares/Third_Party/FreeRTOS/Source/event_groups.c **** 	{
  95:Middlewares/Third_Party/FreeRTOS/Source/event_groups.c **** 	EventGroup_t *pxEventBits;
  96:Middlewares/Third_Party/FreeRTOS/Source/event_groups.c **** 
  97:Middlewares/Third_Party/FreeRTOS/Source/event_groups.c **** 		/* A StaticEventGroup_t object must be provided. */
  98:Middlewares/Third_Party/FreeRTOS/Source/event_groups.c **** 		configASSERT( pxEventGroupBuffer );
  99:Middlewares/Third_Party/FreeRTOS/Source/event_groups.c **** 
 100:Middlewares/Third_Party/FreeRTOS/Source/event_groups.c **** 		#if( configASSERT_DEFINED == 1 )
 101:Middlewares/Third_Party/FreeRTOS/Source/event_groups.c **** 		{
 102:Middlewares/Third_Party/FreeRTOS/Source/event_groups.c **** 			/* Sanity check that the size of the structure used to declare a
 103:Middlewares/Third_Party/FreeRTOS/Source/event_groups.c **** 			variable of type StaticEventGroup_t equals the size of the real
 104:Middlewares/Third_Party/FreeRTOS/Source/event_groups.c **** 			event group structure. */
 105:Middlewares/Third_Party/FreeRTOS/Source/event_groups.c **** 			volatile size_t xSize = sizeof( StaticEventGroup_t );
 106:Middlewares/Third_Party/FreeRTOS/Source/event_groups.c **** 			configASSERT( xSize == sizeof( EventGroup_t ) );
 107:Middlewares/Third_Party/FreeRTOS/Source/event_groups.c **** 		} /*lint !e529 xSize is referenced if configASSERT() is defined. */
 108:Middlewares/Third_Party/FreeRTOS/Source/event_groups.c **** 		#endif /* configASSERT_DEFINED */
 109:Middlewares/Third_Party/FreeRTOS/Source/event_groups.c **** 
 110:Middlewares/Third_Party/FreeRTOS/Source/event_groups.c **** 		/* The user has provided a statically allocated event group - use it. */
 111:Middlewares/Third_Party/FreeRTOS/Source/event_groups.c **** 		pxEventBits = ( EventGroup_t * ) pxEventGroupBuffer; /*lint !e740 !e9087 EventGroup_t and StaticE
 112:Middlewares/Third_Party/FreeRTOS/Source/event_groups.c **** 
 113:Middlewares/Third_Party/FreeRTOS/Source/event_groups.c **** 		if( pxEventBits != NULL )
 114:Middlewares/Third_Party/FreeRTOS/Source/event_groups.c **** 		{
 115:Middlewares/Third_Party/FreeRTOS/Source/event_groups.c **** 			pxEventBits->uxEventBits = 0;
 116:Middlewares/Third_Party/FreeRTOS/Source/event_groups.c **** 			vListInitialise( &( pxEventBits->xTasksWaitingForBits ) );
 117:Middlewares/Third_Party/FreeRTOS/Source/event_groups.c **** 
 118:Middlewares/Third_Party/FreeRTOS/Source/event_groups.c **** 			#if( configSUPPORT_DYNAMIC_ALLOCATION == 1 )
 119:Middlewares/Third_Party/FreeRTOS/Source/event_groups.c **** 			{
 120:Middlewares/Third_Party/FreeRTOS/Source/event_groups.c **** 				/* Both static and dynamic allocation can be used, so note that
 121:Middlewares/Third_Party/FreeRTOS/Source/event_groups.c **** 				this event group was created statically in case the event group
 122:Middlewares/Third_Party/FreeRTOS/Source/event_groups.c **** 				is later deleted. */
 123:Middlewares/Third_Party/FreeRTOS/Source/event_groups.c **** 				pxEventBits->ucStaticallyAllocated = pdTRUE;
 124:Middlewares/Third_Party/FreeRTOS/Source/event_groups.c **** 			}
 125:Middlewares/Third_Party/FreeRTOS/Source/event_groups.c **** 			#endif /* configSUPPORT_DYNAMIC_ALLOCATION */
 126:Middlewares/Third_Party/FreeRTOS/Source/event_groups.c **** 
 127:Middlewares/Third_Party/FreeRTOS/Source/event_groups.c **** 			traceEVENT_GROUP_CREATE( pxEventBits );
 128:Middlewares/Third_Party/FreeRTOS/Source/event_groups.c **** 		}
 129:Middlewares/Third_Party/FreeRTOS/Source/event_groups.c **** 		else
 130:Middlewares/Third_Party/FreeRTOS/Source/event_groups.c **** 		{
 131:Middlewares/Third_Party/FreeRTOS/Source/event_groups.c **** 			/* xEventGroupCreateStatic should only ever be called with
 132:Middlewares/Third_Party/FreeRTOS/Source/event_groups.c **** 			pxEventGroupBuffer pointing to a pre-allocated (compile time
 133:Middlewares/Third_Party/FreeRTOS/Source/event_groups.c **** 			allocated) StaticEventGroup_t variable. */
 134:Middlewares/Third_Party/FreeRTOS/Source/event_groups.c **** 			traceEVENT_GROUP_CREATE_FAILED();
 135:Middlewares/Third_Party/FreeRTOS/Source/event_groups.c **** 		}
 136:Middlewares/Third_Party/FreeRTOS/Source/event_groups.c **** 
 137:Middlewares/Third_Party/FreeRTOS/Source/event_groups.c **** 		return pxEventBits;
 138:Middlewares/Third_Party/FreeRTOS/Source/event_groups.c **** 	}
 139:Middlewares/Third_Party/FreeRTOS/Source/event_groups.c **** 
 140:Middlewares/Third_Party/FreeRTOS/Source/event_groups.c **** #endif /* configSUPPORT_STATIC_ALLOCATION */
 141:Middlewares/Third_Party/FreeRTOS/Source/event_groups.c **** /*-----------------------------------------------------------*/
 142:Middlewares/Third_Party/FreeRTOS/Source/event_groups.c **** 
 143:Middlewares/Third_Party/FreeRTOS/Source/event_groups.c **** #if( configSUPPORT_DYNAMIC_ALLOCATION == 1 )
ARM GAS  C:\Users\Simon\AppData\Local\Temp\cckaAEQd.s 			page 4


 144:Middlewares/Third_Party/FreeRTOS/Source/event_groups.c **** 
 145:Middlewares/Third_Party/FreeRTOS/Source/event_groups.c **** 	EventGroupHandle_t xEventGroupCreate( void )
 146:Middlewares/Third_Party/FreeRTOS/Source/event_groups.c **** 	{
 147:Middlewares/Third_Party/FreeRTOS/Source/event_groups.c **** 	EventGroup_t *pxEventBits;
 148:Middlewares/Third_Party/FreeRTOS/Source/event_groups.c **** 
 149:Middlewares/Third_Party/FreeRTOS/Source/event_groups.c **** 		/* Allocate the event group.  Justification for MISRA deviation as
 150:Middlewares/Third_Party/FreeRTOS/Source/event_groups.c **** 		follows:  pvPortMalloc() always ensures returned memory blocks are
 151:Middlewares/Third_Party/FreeRTOS/Source/event_groups.c **** 		aligned per the requirements of the MCU stack.  In this case
 152:Middlewares/Third_Party/FreeRTOS/Source/event_groups.c **** 		pvPortMalloc() must return a pointer that is guaranteed to meet the
 153:Middlewares/Third_Party/FreeRTOS/Source/event_groups.c **** 		alignment requirements of the EventGroup_t structure - which (if you
 154:Middlewares/Third_Party/FreeRTOS/Source/event_groups.c **** 		follow it through) is the alignment requirements of the TickType_t type
 155:Middlewares/Third_Party/FreeRTOS/Source/event_groups.c **** 		(EventBits_t being of TickType_t itself).  Therefore, whenever the
 156:Middlewares/Third_Party/FreeRTOS/Source/event_groups.c **** 		stack alignment requirements are greater than or equal to the
 157:Middlewares/Third_Party/FreeRTOS/Source/event_groups.c **** 		TickType_t alignment requirements the cast is safe.  In other cases,
 158:Middlewares/Third_Party/FreeRTOS/Source/event_groups.c **** 		where the natural word size of the architecture is less than
 159:Middlewares/Third_Party/FreeRTOS/Source/event_groups.c **** 		sizeof( TickType_t ), the TickType_t variables will be accessed in two
 160:Middlewares/Third_Party/FreeRTOS/Source/event_groups.c **** 		or more reads operations, and the alignment requirements is only that
 161:Middlewares/Third_Party/FreeRTOS/Source/event_groups.c **** 		of each individual read. */
 162:Middlewares/Third_Party/FreeRTOS/Source/event_groups.c **** 		pxEventBits = ( EventGroup_t * ) pvPortMalloc( sizeof( EventGroup_t ) ); /*lint !e9087 !e9079 see
 163:Middlewares/Third_Party/FreeRTOS/Source/event_groups.c **** 
 164:Middlewares/Third_Party/FreeRTOS/Source/event_groups.c **** 		if( pxEventBits != NULL )
 165:Middlewares/Third_Party/FreeRTOS/Source/event_groups.c **** 		{
 166:Middlewares/Third_Party/FreeRTOS/Source/event_groups.c **** 			pxEventBits->uxEventBits = 0;
 167:Middlewares/Third_Party/FreeRTOS/Source/event_groups.c **** 			vListInitialise( &( pxEventBits->xTasksWaitingForBits ) );
 168:Middlewares/Third_Party/FreeRTOS/Source/event_groups.c **** 
 169:Middlewares/Third_Party/FreeRTOS/Source/event_groups.c **** 			#if( configSUPPORT_STATIC_ALLOCATION == 1 )
 170:Middlewares/Third_Party/FreeRTOS/Source/event_groups.c **** 			{
 171:Middlewares/Third_Party/FreeRTOS/Source/event_groups.c **** 				/* Both static and dynamic allocation can be used, so note this
 172:Middlewares/Third_Party/FreeRTOS/Source/event_groups.c **** 				event group was allocated statically in case the event group is
 173:Middlewares/Third_Party/FreeRTOS/Source/event_groups.c **** 				later deleted. */
 174:Middlewares/Third_Party/FreeRTOS/Source/event_groups.c **** 				pxEventBits->ucStaticallyAllocated = pdFALSE;
 175:Middlewares/Third_Party/FreeRTOS/Source/event_groups.c **** 			}
 176:Middlewares/Third_Party/FreeRTOS/Source/event_groups.c **** 			#endif /* configSUPPORT_STATIC_ALLOCATION */
 177:Middlewares/Third_Party/FreeRTOS/Source/event_groups.c **** 
 178:Middlewares/Third_Party/FreeRTOS/Source/event_groups.c **** 			traceEVENT_GROUP_CREATE( pxEventBits );
 179:Middlewares/Third_Party/FreeRTOS/Source/event_groups.c **** 		}
 180:Middlewares/Third_Party/FreeRTOS/Source/event_groups.c **** 		else
 181:Middlewares/Third_Party/FreeRTOS/Source/event_groups.c **** 		{
 182:Middlewares/Third_Party/FreeRTOS/Source/event_groups.c **** 			traceEVENT_GROUP_CREATE_FAILED(); /*lint !e9063 Else branch only exists to allow tracing and doe
 183:Middlewares/Third_Party/FreeRTOS/Source/event_groups.c **** 		}
 184:Middlewares/Third_Party/FreeRTOS/Source/event_groups.c **** 
 185:Middlewares/Third_Party/FreeRTOS/Source/event_groups.c **** 		return pxEventBits;
 186:Middlewares/Third_Party/FreeRTOS/Source/event_groups.c **** 	}
 187:Middlewares/Third_Party/FreeRTOS/Source/event_groups.c **** 
 188:Middlewares/Third_Party/FreeRTOS/Source/event_groups.c **** #endif /* configSUPPORT_DYNAMIC_ALLOCATION */
 189:Middlewares/Third_Party/FreeRTOS/Source/event_groups.c **** /*-----------------------------------------------------------*/
 190:Middlewares/Third_Party/FreeRTOS/Source/event_groups.c **** 
 191:Middlewares/Third_Party/FreeRTOS/Source/event_groups.c **** EventBits_t xEventGroupSync( EventGroupHandle_t xEventGroup, const EventBits_t uxBitsToSet, const E
 192:Middlewares/Third_Party/FreeRTOS/Source/event_groups.c **** {
 193:Middlewares/Third_Party/FreeRTOS/Source/event_groups.c **** EventBits_t uxOriginalBitValue, uxReturn;
 194:Middlewares/Third_Party/FreeRTOS/Source/event_groups.c **** EventGroup_t *pxEventBits = xEventGroup;
 195:Middlewares/Third_Party/FreeRTOS/Source/event_groups.c **** BaseType_t xAlreadyYielded;
 196:Middlewares/Third_Party/FreeRTOS/Source/event_groups.c **** BaseType_t xTimeoutOccurred = pdFALSE;
 197:Middlewares/Third_Party/FreeRTOS/Source/event_groups.c **** 
 198:Middlewares/Third_Party/FreeRTOS/Source/event_groups.c **** 	configASSERT( ( uxBitsToWaitFor & eventEVENT_BITS_CONTROL_BYTES ) == 0 );
 199:Middlewares/Third_Party/FreeRTOS/Source/event_groups.c **** 	configASSERT( uxBitsToWaitFor != 0 );
 200:Middlewares/Third_Party/FreeRTOS/Source/event_groups.c **** 	#if ( ( INCLUDE_xTaskGetSchedulerState == 1 ) || ( configUSE_TIMERS == 1 ) )
ARM GAS  C:\Users\Simon\AppData\Local\Temp\cckaAEQd.s 			page 5


 201:Middlewares/Third_Party/FreeRTOS/Source/event_groups.c **** 	{
 202:Middlewares/Third_Party/FreeRTOS/Source/event_groups.c **** 		configASSERT( !( ( xTaskGetSchedulerState() == taskSCHEDULER_SUSPENDED ) && ( xTicksToWait != 0 )
 203:Middlewares/Third_Party/FreeRTOS/Source/event_groups.c **** 	}
 204:Middlewares/Third_Party/FreeRTOS/Source/event_groups.c **** 	#endif
 205:Middlewares/Third_Party/FreeRTOS/Source/event_groups.c **** 
 206:Middlewares/Third_Party/FreeRTOS/Source/event_groups.c **** 	vTaskSuspendAll();
 207:Middlewares/Third_Party/FreeRTOS/Source/event_groups.c **** 	{
 208:Middlewares/Third_Party/FreeRTOS/Source/event_groups.c **** 		uxOriginalBitValue = pxEventBits->uxEventBits;
 209:Middlewares/Third_Party/FreeRTOS/Source/event_groups.c **** 
 210:Middlewares/Third_Party/FreeRTOS/Source/event_groups.c **** 		( void ) xEventGroupSetBits( xEventGroup, uxBitsToSet );
 211:Middlewares/Third_Party/FreeRTOS/Source/event_groups.c **** 
 212:Middlewares/Third_Party/FreeRTOS/Source/event_groups.c **** 		if( ( ( uxOriginalBitValue | uxBitsToSet ) & uxBitsToWaitFor ) == uxBitsToWaitFor )
 213:Middlewares/Third_Party/FreeRTOS/Source/event_groups.c **** 		{
 214:Middlewares/Third_Party/FreeRTOS/Source/event_groups.c **** 			/* All the rendezvous bits are now set - no need to block. */
 215:Middlewares/Third_Party/FreeRTOS/Source/event_groups.c **** 			uxReturn = ( uxOriginalBitValue | uxBitsToSet );
 216:Middlewares/Third_Party/FreeRTOS/Source/event_groups.c **** 
 217:Middlewares/Third_Party/FreeRTOS/Source/event_groups.c **** 			/* Rendezvous always clear the bits.  They will have been cleared
 218:Middlewares/Third_Party/FreeRTOS/Source/event_groups.c **** 			already unless this is the only task in the rendezvous. */
 219:Middlewares/Third_Party/FreeRTOS/Source/event_groups.c **** 			pxEventBits->uxEventBits &= ~uxBitsToWaitFor;
 220:Middlewares/Third_Party/FreeRTOS/Source/event_groups.c **** 
 221:Middlewares/Third_Party/FreeRTOS/Source/event_groups.c **** 			xTicksToWait = 0;
 222:Middlewares/Third_Party/FreeRTOS/Source/event_groups.c **** 		}
 223:Middlewares/Third_Party/FreeRTOS/Source/event_groups.c **** 		else
 224:Middlewares/Third_Party/FreeRTOS/Source/event_groups.c **** 		{
 225:Middlewares/Third_Party/FreeRTOS/Source/event_groups.c **** 			if( xTicksToWait != ( TickType_t ) 0 )
 226:Middlewares/Third_Party/FreeRTOS/Source/event_groups.c **** 			{
 227:Middlewares/Third_Party/FreeRTOS/Source/event_groups.c **** 				traceEVENT_GROUP_SYNC_BLOCK( xEventGroup, uxBitsToSet, uxBitsToWaitFor );
 228:Middlewares/Third_Party/FreeRTOS/Source/event_groups.c **** 
 229:Middlewares/Third_Party/FreeRTOS/Source/event_groups.c **** 				/* Store the bits that the calling task is waiting for in the
 230:Middlewares/Third_Party/FreeRTOS/Source/event_groups.c **** 				task's event list item so the kernel knows when a match is
 231:Middlewares/Third_Party/FreeRTOS/Source/event_groups.c **** 				found.  Then enter the blocked state. */
 232:Middlewares/Third_Party/FreeRTOS/Source/event_groups.c **** 				vTaskPlaceOnUnorderedEventList( &( pxEventBits->xTasksWaitingForBits ), ( uxBitsToWaitFor | eve
 233:Middlewares/Third_Party/FreeRTOS/Source/event_groups.c **** 
 234:Middlewares/Third_Party/FreeRTOS/Source/event_groups.c **** 				/* This assignment is obsolete as uxReturn will get set after
 235:Middlewares/Third_Party/FreeRTOS/Source/event_groups.c **** 				the task unblocks, but some compilers mistakenly generate a
 236:Middlewares/Third_Party/FreeRTOS/Source/event_groups.c **** 				warning about uxReturn being returned without being set if the
 237:Middlewares/Third_Party/FreeRTOS/Source/event_groups.c **** 				assignment is omitted. */
 238:Middlewares/Third_Party/FreeRTOS/Source/event_groups.c **** 				uxReturn = 0;
 239:Middlewares/Third_Party/FreeRTOS/Source/event_groups.c **** 			}
 240:Middlewares/Third_Party/FreeRTOS/Source/event_groups.c **** 			else
 241:Middlewares/Third_Party/FreeRTOS/Source/event_groups.c **** 			{
 242:Middlewares/Third_Party/FreeRTOS/Source/event_groups.c **** 				/* The rendezvous bits were not set, but no block time was
 243:Middlewares/Third_Party/FreeRTOS/Source/event_groups.c **** 				specified - just return the current event bit value. */
 244:Middlewares/Third_Party/FreeRTOS/Source/event_groups.c **** 				uxReturn = pxEventBits->uxEventBits;
 245:Middlewares/Third_Party/FreeRTOS/Source/event_groups.c **** 				xTimeoutOccurred = pdTRUE;
 246:Middlewares/Third_Party/FreeRTOS/Source/event_groups.c **** 			}
 247:Middlewares/Third_Party/FreeRTOS/Source/event_groups.c **** 		}
 248:Middlewares/Third_Party/FreeRTOS/Source/event_groups.c **** 	}
 249:Middlewares/Third_Party/FreeRTOS/Source/event_groups.c **** 	xAlreadyYielded = xTaskResumeAll();
 250:Middlewares/Third_Party/FreeRTOS/Source/event_groups.c **** 
 251:Middlewares/Third_Party/FreeRTOS/Source/event_groups.c **** 	if( xTicksToWait != ( TickType_t ) 0 )
 252:Middlewares/Third_Party/FreeRTOS/Source/event_groups.c **** 	{
 253:Middlewares/Third_Party/FreeRTOS/Source/event_groups.c **** 		if( xAlreadyYielded == pdFALSE )
 254:Middlewares/Third_Party/FreeRTOS/Source/event_groups.c **** 		{
 255:Middlewares/Third_Party/FreeRTOS/Source/event_groups.c **** 			portYIELD_WITHIN_API();
 256:Middlewares/Third_Party/FreeRTOS/Source/event_groups.c **** 		}
 257:Middlewares/Third_Party/FreeRTOS/Source/event_groups.c **** 		else
ARM GAS  C:\Users\Simon\AppData\Local\Temp\cckaAEQd.s 			page 6


 258:Middlewares/Third_Party/FreeRTOS/Source/event_groups.c **** 		{
 259:Middlewares/Third_Party/FreeRTOS/Source/event_groups.c **** 			mtCOVERAGE_TEST_MARKER();
 260:Middlewares/Third_Party/FreeRTOS/Source/event_groups.c **** 		}
 261:Middlewares/Third_Party/FreeRTOS/Source/event_groups.c **** 
 262:Middlewares/Third_Party/FreeRTOS/Source/event_groups.c **** 		/* The task blocked to wait for its required bits to be set - at this
 263:Middlewares/Third_Party/FreeRTOS/Source/event_groups.c **** 		point either the required bits were set or the block time expired.  If
 264:Middlewares/Third_Party/FreeRTOS/Source/event_groups.c **** 		the required bits were set they will have been stored in the task's
 265:Middlewares/Third_Party/FreeRTOS/Source/event_groups.c **** 		event list item, and they should now be retrieved then cleared. */
 266:Middlewares/Third_Party/FreeRTOS/Source/event_groups.c **** 		uxReturn = uxTaskResetEventItemValue();
 267:Middlewares/Third_Party/FreeRTOS/Source/event_groups.c **** 
 268:Middlewares/Third_Party/FreeRTOS/Source/event_groups.c **** 		if( ( uxReturn & eventUNBLOCKED_DUE_TO_BIT_SET ) == ( EventBits_t ) 0 )
 269:Middlewares/Third_Party/FreeRTOS/Source/event_groups.c **** 		{
 270:Middlewares/Third_Party/FreeRTOS/Source/event_groups.c **** 			/* The task timed out, just return the current event bit value. */
 271:Middlewares/Third_Party/FreeRTOS/Source/event_groups.c **** 			taskENTER_CRITICAL();
 272:Middlewares/Third_Party/FreeRTOS/Source/event_groups.c **** 			{
 273:Middlewares/Third_Party/FreeRTOS/Source/event_groups.c **** 				uxReturn = pxEventBits->uxEventBits;
 274:Middlewares/Third_Party/FreeRTOS/Source/event_groups.c **** 
 275:Middlewares/Third_Party/FreeRTOS/Source/event_groups.c **** 				/* Although the task got here because it timed out before the
 276:Middlewares/Third_Party/FreeRTOS/Source/event_groups.c **** 				bits it was waiting for were set, it is possible that since it
 277:Middlewares/Third_Party/FreeRTOS/Source/event_groups.c **** 				unblocked another task has set the bits.  If this is the case
 278:Middlewares/Third_Party/FreeRTOS/Source/event_groups.c **** 				then it needs to clear the bits before exiting. */
 279:Middlewares/Third_Party/FreeRTOS/Source/event_groups.c **** 				if( ( uxReturn & uxBitsToWaitFor ) == uxBitsToWaitFor )
 280:Middlewares/Third_Party/FreeRTOS/Source/event_groups.c **** 				{
 281:Middlewares/Third_Party/FreeRTOS/Source/event_groups.c **** 					pxEventBits->uxEventBits &= ~uxBitsToWaitFor;
 282:Middlewares/Third_Party/FreeRTOS/Source/event_groups.c **** 				}
 283:Middlewares/Third_Party/FreeRTOS/Source/event_groups.c **** 				else
 284:Middlewares/Third_Party/FreeRTOS/Source/event_groups.c **** 				{
 285:Middlewares/Third_Party/FreeRTOS/Source/event_groups.c **** 					mtCOVERAGE_TEST_MARKER();
 286:Middlewares/Third_Party/FreeRTOS/Source/event_groups.c **** 				}
 287:Middlewares/Third_Party/FreeRTOS/Source/event_groups.c **** 			}
 288:Middlewares/Third_Party/FreeRTOS/Source/event_groups.c **** 			taskEXIT_CRITICAL();
 289:Middlewares/Third_Party/FreeRTOS/Source/event_groups.c **** 
 290:Middlewares/Third_Party/FreeRTOS/Source/event_groups.c **** 			xTimeoutOccurred = pdTRUE;
 291:Middlewares/Third_Party/FreeRTOS/Source/event_groups.c **** 		}
 292:Middlewares/Third_Party/FreeRTOS/Source/event_groups.c **** 		else
 293:Middlewares/Third_Party/FreeRTOS/Source/event_groups.c **** 		{
 294:Middlewares/Third_Party/FreeRTOS/Source/event_groups.c **** 			/* The task unblocked because the bits were set. */
 295:Middlewares/Third_Party/FreeRTOS/Source/event_groups.c **** 		}
 296:Middlewares/Third_Party/FreeRTOS/Source/event_groups.c **** 
 297:Middlewares/Third_Party/FreeRTOS/Source/event_groups.c **** 		/* Control bits might be set as the task had blocked should not be
 298:Middlewares/Third_Party/FreeRTOS/Source/event_groups.c **** 		returned. */
 299:Middlewares/Third_Party/FreeRTOS/Source/event_groups.c **** 		uxReturn &= ~eventEVENT_BITS_CONTROL_BYTES;
 300:Middlewares/Third_Party/FreeRTOS/Source/event_groups.c **** 	}
 301:Middlewares/Third_Party/FreeRTOS/Source/event_groups.c **** 
 302:Middlewares/Third_Party/FreeRTOS/Source/event_groups.c **** 	traceEVENT_GROUP_SYNC_END( xEventGroup, uxBitsToSet, uxBitsToWaitFor, xTimeoutOccurred );
 303:Middlewares/Third_Party/FreeRTOS/Source/event_groups.c **** 
 304:Middlewares/Third_Party/FreeRTOS/Source/event_groups.c **** 	/* Prevent compiler warnings when trace macros are not used. */
 305:Middlewares/Third_Party/FreeRTOS/Source/event_groups.c **** 	( void ) xTimeoutOccurred;
 306:Middlewares/Third_Party/FreeRTOS/Source/event_groups.c **** 
 307:Middlewares/Third_Party/FreeRTOS/Source/event_groups.c **** 	return uxReturn;
 308:Middlewares/Third_Party/FreeRTOS/Source/event_groups.c **** }
 309:Middlewares/Third_Party/FreeRTOS/Source/event_groups.c **** /*-----------------------------------------------------------*/
 310:Middlewares/Third_Party/FreeRTOS/Source/event_groups.c **** 
 311:Middlewares/Third_Party/FreeRTOS/Source/event_groups.c **** EventBits_t xEventGroupWaitBits( EventGroupHandle_t xEventGroup, const EventBits_t uxBitsToWaitFor,
 312:Middlewares/Third_Party/FreeRTOS/Source/event_groups.c **** {
 313:Middlewares/Third_Party/FreeRTOS/Source/event_groups.c **** EventGroup_t *pxEventBits = xEventGroup;
 314:Middlewares/Third_Party/FreeRTOS/Source/event_groups.c **** EventBits_t uxReturn, uxControlBits = 0;
ARM GAS  C:\Users\Simon\AppData\Local\Temp\cckaAEQd.s 			page 7


 315:Middlewares/Third_Party/FreeRTOS/Source/event_groups.c **** BaseType_t xWaitConditionMet, xAlreadyYielded;
 316:Middlewares/Third_Party/FreeRTOS/Source/event_groups.c **** BaseType_t xTimeoutOccurred = pdFALSE;
 317:Middlewares/Third_Party/FreeRTOS/Source/event_groups.c **** 
 318:Middlewares/Third_Party/FreeRTOS/Source/event_groups.c **** 	/* Check the user is not attempting to wait on the bits used by the kernel
 319:Middlewares/Third_Party/FreeRTOS/Source/event_groups.c **** 	itself, and that at least one bit is being requested. */
 320:Middlewares/Third_Party/FreeRTOS/Source/event_groups.c **** 	configASSERT( xEventGroup );
 321:Middlewares/Third_Party/FreeRTOS/Source/event_groups.c **** 	configASSERT( ( uxBitsToWaitFor & eventEVENT_BITS_CONTROL_BYTES ) == 0 );
 322:Middlewares/Third_Party/FreeRTOS/Source/event_groups.c **** 	configASSERT( uxBitsToWaitFor != 0 );
 323:Middlewares/Third_Party/FreeRTOS/Source/event_groups.c **** 	#if ( ( INCLUDE_xTaskGetSchedulerState == 1 ) || ( configUSE_TIMERS == 1 ) )
 324:Middlewares/Third_Party/FreeRTOS/Source/event_groups.c **** 	{
 325:Middlewares/Third_Party/FreeRTOS/Source/event_groups.c **** 		configASSERT( !( ( xTaskGetSchedulerState() == taskSCHEDULER_SUSPENDED ) && ( xTicksToWait != 0 )
 326:Middlewares/Third_Party/FreeRTOS/Source/event_groups.c **** 	}
 327:Middlewares/Third_Party/FreeRTOS/Source/event_groups.c **** 	#endif
 328:Middlewares/Third_Party/FreeRTOS/Source/event_groups.c **** 
 329:Middlewares/Third_Party/FreeRTOS/Source/event_groups.c **** 	vTaskSuspendAll();
 330:Middlewares/Third_Party/FreeRTOS/Source/event_groups.c **** 	{
 331:Middlewares/Third_Party/FreeRTOS/Source/event_groups.c **** 		const EventBits_t uxCurrentEventBits = pxEventBits->uxEventBits;
 332:Middlewares/Third_Party/FreeRTOS/Source/event_groups.c **** 
 333:Middlewares/Third_Party/FreeRTOS/Source/event_groups.c **** 		/* Check to see if the wait condition is already met or not. */
 334:Middlewares/Third_Party/FreeRTOS/Source/event_groups.c **** 		xWaitConditionMet = prvTestWaitCondition( uxCurrentEventBits, uxBitsToWaitFor, xWaitForAllBits );
 335:Middlewares/Third_Party/FreeRTOS/Source/event_groups.c **** 
 336:Middlewares/Third_Party/FreeRTOS/Source/event_groups.c **** 		if( xWaitConditionMet != pdFALSE )
 337:Middlewares/Third_Party/FreeRTOS/Source/event_groups.c **** 		{
 338:Middlewares/Third_Party/FreeRTOS/Source/event_groups.c **** 			/* The wait condition has already been met so there is no need to
 339:Middlewares/Third_Party/FreeRTOS/Source/event_groups.c **** 			block. */
 340:Middlewares/Third_Party/FreeRTOS/Source/event_groups.c **** 			uxReturn = uxCurrentEventBits;
 341:Middlewares/Third_Party/FreeRTOS/Source/event_groups.c **** 			xTicksToWait = ( TickType_t ) 0;
 342:Middlewares/Third_Party/FreeRTOS/Source/event_groups.c **** 
 343:Middlewares/Third_Party/FreeRTOS/Source/event_groups.c **** 			/* Clear the wait bits if requested to do so. */
 344:Middlewares/Third_Party/FreeRTOS/Source/event_groups.c **** 			if( xClearOnExit != pdFALSE )
 345:Middlewares/Third_Party/FreeRTOS/Source/event_groups.c **** 			{
 346:Middlewares/Third_Party/FreeRTOS/Source/event_groups.c **** 				pxEventBits->uxEventBits &= ~uxBitsToWaitFor;
 347:Middlewares/Third_Party/FreeRTOS/Source/event_groups.c **** 			}
 348:Middlewares/Third_Party/FreeRTOS/Source/event_groups.c **** 			else
 349:Middlewares/Third_Party/FreeRTOS/Source/event_groups.c **** 			{
 350:Middlewares/Third_Party/FreeRTOS/Source/event_groups.c **** 				mtCOVERAGE_TEST_MARKER();
 351:Middlewares/Third_Party/FreeRTOS/Source/event_groups.c **** 			}
 352:Middlewares/Third_Party/FreeRTOS/Source/event_groups.c **** 		}
 353:Middlewares/Third_Party/FreeRTOS/Source/event_groups.c **** 		else if( xTicksToWait == ( TickType_t ) 0 )
 354:Middlewares/Third_Party/FreeRTOS/Source/event_groups.c **** 		{
 355:Middlewares/Third_Party/FreeRTOS/Source/event_groups.c **** 			/* The wait condition has not been met, but no block time was
 356:Middlewares/Third_Party/FreeRTOS/Source/event_groups.c **** 			specified, so just return the current value. */
 357:Middlewares/Third_Party/FreeRTOS/Source/event_groups.c **** 			uxReturn = uxCurrentEventBits;
 358:Middlewares/Third_Party/FreeRTOS/Source/event_groups.c **** 			xTimeoutOccurred = pdTRUE;
 359:Middlewares/Third_Party/FreeRTOS/Source/event_groups.c **** 		}
 360:Middlewares/Third_Party/FreeRTOS/Source/event_groups.c **** 		else
 361:Middlewares/Third_Party/FreeRTOS/Source/event_groups.c **** 		{
 362:Middlewares/Third_Party/FreeRTOS/Source/event_groups.c **** 			/* The task is going to block to wait for its required bits to be
 363:Middlewares/Third_Party/FreeRTOS/Source/event_groups.c **** 			set.  uxControlBits are used to remember the specified behaviour of
 364:Middlewares/Third_Party/FreeRTOS/Source/event_groups.c **** 			this call to xEventGroupWaitBits() - for use when the event bits
 365:Middlewares/Third_Party/FreeRTOS/Source/event_groups.c **** 			unblock the task. */
 366:Middlewares/Third_Party/FreeRTOS/Source/event_groups.c **** 			if( xClearOnExit != pdFALSE )
 367:Middlewares/Third_Party/FreeRTOS/Source/event_groups.c **** 			{
 368:Middlewares/Third_Party/FreeRTOS/Source/event_groups.c **** 				uxControlBits |= eventCLEAR_EVENTS_ON_EXIT_BIT;
 369:Middlewares/Third_Party/FreeRTOS/Source/event_groups.c **** 			}
 370:Middlewares/Third_Party/FreeRTOS/Source/event_groups.c **** 			else
 371:Middlewares/Third_Party/FreeRTOS/Source/event_groups.c **** 			{
ARM GAS  C:\Users\Simon\AppData\Local\Temp\cckaAEQd.s 			page 8


 372:Middlewares/Third_Party/FreeRTOS/Source/event_groups.c **** 				mtCOVERAGE_TEST_MARKER();
 373:Middlewares/Third_Party/FreeRTOS/Source/event_groups.c **** 			}
 374:Middlewares/Third_Party/FreeRTOS/Source/event_groups.c **** 
 375:Middlewares/Third_Party/FreeRTOS/Source/event_groups.c **** 			if( xWaitForAllBits != pdFALSE )
 376:Middlewares/Third_Party/FreeRTOS/Source/event_groups.c **** 			{
 377:Middlewares/Third_Party/FreeRTOS/Source/event_groups.c **** 				uxControlBits |= eventWAIT_FOR_ALL_BITS;
 378:Middlewares/Third_Party/FreeRTOS/Source/event_groups.c **** 			}
 379:Middlewares/Third_Party/FreeRTOS/Source/event_groups.c **** 			else
 380:Middlewares/Third_Party/FreeRTOS/Source/event_groups.c **** 			{
 381:Middlewares/Third_Party/FreeRTOS/Source/event_groups.c **** 				mtCOVERAGE_TEST_MARKER();
 382:Middlewares/Third_Party/FreeRTOS/Source/event_groups.c **** 			}
 383:Middlewares/Third_Party/FreeRTOS/Source/event_groups.c **** 
 384:Middlewares/Third_Party/FreeRTOS/Source/event_groups.c **** 			/* Store the bits that the calling task is waiting for in the
 385:Middlewares/Third_Party/FreeRTOS/Source/event_groups.c **** 			task's event list item so the kernel knows when a match is
 386:Middlewares/Third_Party/FreeRTOS/Source/event_groups.c **** 			found.  Then enter the blocked state. */
 387:Middlewares/Third_Party/FreeRTOS/Source/event_groups.c **** 			vTaskPlaceOnUnorderedEventList( &( pxEventBits->xTasksWaitingForBits ), ( uxBitsToWaitFor | uxCo
 388:Middlewares/Third_Party/FreeRTOS/Source/event_groups.c **** 
 389:Middlewares/Third_Party/FreeRTOS/Source/event_groups.c **** 			/* This is obsolete as it will get set after the task unblocks, but
 390:Middlewares/Third_Party/FreeRTOS/Source/event_groups.c **** 			some compilers mistakenly generate a warning about the variable
 391:Middlewares/Third_Party/FreeRTOS/Source/event_groups.c **** 			being returned without being set if it is not done. */
 392:Middlewares/Third_Party/FreeRTOS/Source/event_groups.c **** 			uxReturn = 0;
 393:Middlewares/Third_Party/FreeRTOS/Source/event_groups.c **** 
 394:Middlewares/Third_Party/FreeRTOS/Source/event_groups.c **** 			traceEVENT_GROUP_WAIT_BITS_BLOCK( xEventGroup, uxBitsToWaitFor );
 395:Middlewares/Third_Party/FreeRTOS/Source/event_groups.c **** 		}
 396:Middlewares/Third_Party/FreeRTOS/Source/event_groups.c **** 	}
 397:Middlewares/Third_Party/FreeRTOS/Source/event_groups.c **** 	xAlreadyYielded = xTaskResumeAll();
 398:Middlewares/Third_Party/FreeRTOS/Source/event_groups.c **** 
 399:Middlewares/Third_Party/FreeRTOS/Source/event_groups.c **** 	if( xTicksToWait != ( TickType_t ) 0 )
 400:Middlewares/Third_Party/FreeRTOS/Source/event_groups.c **** 	{
 401:Middlewares/Third_Party/FreeRTOS/Source/event_groups.c **** 		if( xAlreadyYielded == pdFALSE )
 402:Middlewares/Third_Party/FreeRTOS/Source/event_groups.c **** 		{
 403:Middlewares/Third_Party/FreeRTOS/Source/event_groups.c **** 			portYIELD_WITHIN_API();
 404:Middlewares/Third_Party/FreeRTOS/Source/event_groups.c **** 		}
 405:Middlewares/Third_Party/FreeRTOS/Source/event_groups.c **** 		else
 406:Middlewares/Third_Party/FreeRTOS/Source/event_groups.c **** 		{
 407:Middlewares/Third_Party/FreeRTOS/Source/event_groups.c **** 			mtCOVERAGE_TEST_MARKER();
 408:Middlewares/Third_Party/FreeRTOS/Source/event_groups.c **** 		}
 409:Middlewares/Third_Party/FreeRTOS/Source/event_groups.c **** 
 410:Middlewares/Third_Party/FreeRTOS/Source/event_groups.c **** 		/* The task blocked to wait for its required bits to be set - at this
 411:Middlewares/Third_Party/FreeRTOS/Source/event_groups.c **** 		point either the required bits were set or the block time expired.  If
 412:Middlewares/Third_Party/FreeRTOS/Source/event_groups.c **** 		the required bits were set they will have been stored in the task's
 413:Middlewares/Third_Party/FreeRTOS/Source/event_groups.c **** 		event list item, and they should now be retrieved then cleared. */
 414:Middlewares/Third_Party/FreeRTOS/Source/event_groups.c **** 		uxReturn = uxTaskResetEventItemValue();
 415:Middlewares/Third_Party/FreeRTOS/Source/event_groups.c **** 
 416:Middlewares/Third_Party/FreeRTOS/Source/event_groups.c **** 		if( ( uxReturn & eventUNBLOCKED_DUE_TO_BIT_SET ) == ( EventBits_t ) 0 )
 417:Middlewares/Third_Party/FreeRTOS/Source/event_groups.c **** 		{
 418:Middlewares/Third_Party/FreeRTOS/Source/event_groups.c **** 			taskENTER_CRITICAL();
 419:Middlewares/Third_Party/FreeRTOS/Source/event_groups.c **** 			{
 420:Middlewares/Third_Party/FreeRTOS/Source/event_groups.c **** 				/* The task timed out, just return the current event bit value. */
 421:Middlewares/Third_Party/FreeRTOS/Source/event_groups.c **** 				uxReturn = pxEventBits->uxEventBits;
 422:Middlewares/Third_Party/FreeRTOS/Source/event_groups.c **** 
 423:Middlewares/Third_Party/FreeRTOS/Source/event_groups.c **** 				/* It is possible that the event bits were updated between this
 424:Middlewares/Third_Party/FreeRTOS/Source/event_groups.c **** 				task leaving the Blocked state and running again. */
 425:Middlewares/Third_Party/FreeRTOS/Source/event_groups.c **** 				if( prvTestWaitCondition( uxReturn, uxBitsToWaitFor, xWaitForAllBits ) != pdFALSE )
 426:Middlewares/Third_Party/FreeRTOS/Source/event_groups.c **** 				{
 427:Middlewares/Third_Party/FreeRTOS/Source/event_groups.c **** 					if( xClearOnExit != pdFALSE )
 428:Middlewares/Third_Party/FreeRTOS/Source/event_groups.c **** 					{
ARM GAS  C:\Users\Simon\AppData\Local\Temp\cckaAEQd.s 			page 9


 429:Middlewares/Third_Party/FreeRTOS/Source/event_groups.c **** 						pxEventBits->uxEventBits &= ~uxBitsToWaitFor;
 430:Middlewares/Third_Party/FreeRTOS/Source/event_groups.c **** 					}
 431:Middlewares/Third_Party/FreeRTOS/Source/event_groups.c **** 					else
 432:Middlewares/Third_Party/FreeRTOS/Source/event_groups.c **** 					{
 433:Middlewares/Third_Party/FreeRTOS/Source/event_groups.c **** 						mtCOVERAGE_TEST_MARKER();
 434:Middlewares/Third_Party/FreeRTOS/Source/event_groups.c **** 					}
 435:Middlewares/Third_Party/FreeRTOS/Source/event_groups.c **** 				}
 436:Middlewares/Third_Party/FreeRTOS/Source/event_groups.c **** 				else
 437:Middlewares/Third_Party/FreeRTOS/Source/event_groups.c **** 				{
 438:Middlewares/Third_Party/FreeRTOS/Source/event_groups.c **** 					mtCOVERAGE_TEST_MARKER();
 439:Middlewares/Third_Party/FreeRTOS/Source/event_groups.c **** 				}
 440:Middlewares/Third_Party/FreeRTOS/Source/event_groups.c **** 				xTimeoutOccurred = pdTRUE;
 441:Middlewares/Third_Party/FreeRTOS/Source/event_groups.c **** 			}
 442:Middlewares/Third_Party/FreeRTOS/Source/event_groups.c **** 			taskEXIT_CRITICAL();
 443:Middlewares/Third_Party/FreeRTOS/Source/event_groups.c **** 		}
 444:Middlewares/Third_Party/FreeRTOS/Source/event_groups.c **** 		else
 445:Middlewares/Third_Party/FreeRTOS/Source/event_groups.c **** 		{
 446:Middlewares/Third_Party/FreeRTOS/Source/event_groups.c **** 			/* The task unblocked because the bits were set. */
 447:Middlewares/Third_Party/FreeRTOS/Source/event_groups.c **** 		}
 448:Middlewares/Third_Party/FreeRTOS/Source/event_groups.c **** 
 449:Middlewares/Third_Party/FreeRTOS/Source/event_groups.c **** 		/* The task blocked so control bits may have been set. */
 450:Middlewares/Third_Party/FreeRTOS/Source/event_groups.c **** 		uxReturn &= ~eventEVENT_BITS_CONTROL_BYTES;
 451:Middlewares/Third_Party/FreeRTOS/Source/event_groups.c **** 	}
 452:Middlewares/Third_Party/FreeRTOS/Source/event_groups.c **** 	traceEVENT_GROUP_WAIT_BITS_END( xEventGroup, uxBitsToWaitFor, xTimeoutOccurred );
 453:Middlewares/Third_Party/FreeRTOS/Source/event_groups.c **** 
 454:Middlewares/Third_Party/FreeRTOS/Source/event_groups.c **** 	/* Prevent compiler warnings when trace macros are not used. */
 455:Middlewares/Third_Party/FreeRTOS/Source/event_groups.c **** 	( void ) xTimeoutOccurred;
 456:Middlewares/Third_Party/FreeRTOS/Source/event_groups.c **** 
 457:Middlewares/Third_Party/FreeRTOS/Source/event_groups.c **** 	return uxReturn;
 458:Middlewares/Third_Party/FreeRTOS/Source/event_groups.c **** }
 459:Middlewares/Third_Party/FreeRTOS/Source/event_groups.c **** /*-----------------------------------------------------------*/
 460:Middlewares/Third_Party/FreeRTOS/Source/event_groups.c **** 
 461:Middlewares/Third_Party/FreeRTOS/Source/event_groups.c **** EventBits_t xEventGroupClearBits( EventGroupHandle_t xEventGroup, const EventBits_t uxBitsToClear )
 462:Middlewares/Third_Party/FreeRTOS/Source/event_groups.c **** {
 463:Middlewares/Third_Party/FreeRTOS/Source/event_groups.c **** EventGroup_t *pxEventBits = xEventGroup;
 464:Middlewares/Third_Party/FreeRTOS/Source/event_groups.c **** EventBits_t uxReturn;
 465:Middlewares/Third_Party/FreeRTOS/Source/event_groups.c **** 
 466:Middlewares/Third_Party/FreeRTOS/Source/event_groups.c **** 	/* Check the user is not attempting to clear the bits used by the kernel
 467:Middlewares/Third_Party/FreeRTOS/Source/event_groups.c **** 	itself. */
 468:Middlewares/Third_Party/FreeRTOS/Source/event_groups.c **** 	configASSERT( xEventGroup );
 469:Middlewares/Third_Party/FreeRTOS/Source/event_groups.c **** 	configASSERT( ( uxBitsToClear & eventEVENT_BITS_CONTROL_BYTES ) == 0 );
 470:Middlewares/Third_Party/FreeRTOS/Source/event_groups.c **** 
 471:Middlewares/Third_Party/FreeRTOS/Source/event_groups.c **** 	taskENTER_CRITICAL();
 472:Middlewares/Third_Party/FreeRTOS/Source/event_groups.c **** 	{
 473:Middlewares/Third_Party/FreeRTOS/Source/event_groups.c **** 		traceEVENT_GROUP_CLEAR_BITS( xEventGroup, uxBitsToClear );
 474:Middlewares/Third_Party/FreeRTOS/Source/event_groups.c **** 
 475:Middlewares/Third_Party/FreeRTOS/Source/event_groups.c **** 		/* The value returned is the event group value prior to the bits being
 476:Middlewares/Third_Party/FreeRTOS/Source/event_groups.c **** 		cleared. */
 477:Middlewares/Third_Party/FreeRTOS/Source/event_groups.c **** 		uxReturn = pxEventBits->uxEventBits;
 478:Middlewares/Third_Party/FreeRTOS/Source/event_groups.c **** 
 479:Middlewares/Third_Party/FreeRTOS/Source/event_groups.c **** 		/* Clear the bits. */
 480:Middlewares/Third_Party/FreeRTOS/Source/event_groups.c **** 		pxEventBits->uxEventBits &= ~uxBitsToClear;
 481:Middlewares/Third_Party/FreeRTOS/Source/event_groups.c **** 	}
 482:Middlewares/Third_Party/FreeRTOS/Source/event_groups.c **** 	taskEXIT_CRITICAL();
 483:Middlewares/Third_Party/FreeRTOS/Source/event_groups.c **** 
 484:Middlewares/Third_Party/FreeRTOS/Source/event_groups.c **** 	return uxReturn;
 485:Middlewares/Third_Party/FreeRTOS/Source/event_groups.c **** }
ARM GAS  C:\Users\Simon\AppData\Local\Temp\cckaAEQd.s 			page 10


 486:Middlewares/Third_Party/FreeRTOS/Source/event_groups.c **** /*-----------------------------------------------------------*/
 487:Middlewares/Third_Party/FreeRTOS/Source/event_groups.c **** 
 488:Middlewares/Third_Party/FreeRTOS/Source/event_groups.c **** #if ( ( configUSE_TRACE_FACILITY == 1 ) && ( INCLUDE_xTimerPendFunctionCall == 1 ) && ( configUSE_T
 489:Middlewares/Third_Party/FreeRTOS/Source/event_groups.c **** 
 490:Middlewares/Third_Party/FreeRTOS/Source/event_groups.c **** 	BaseType_t xEventGroupClearBitsFromISR( EventGroupHandle_t xEventGroup, const EventBits_t uxBitsTo
 491:Middlewares/Third_Party/FreeRTOS/Source/event_groups.c **** 	{
 492:Middlewares/Third_Party/FreeRTOS/Source/event_groups.c **** 		BaseType_t xReturn;
 493:Middlewares/Third_Party/FreeRTOS/Source/event_groups.c **** 
 494:Middlewares/Third_Party/FreeRTOS/Source/event_groups.c **** 		traceEVENT_GROUP_CLEAR_BITS_FROM_ISR( xEventGroup, uxBitsToClear );
 495:Middlewares/Third_Party/FreeRTOS/Source/event_groups.c **** 		xReturn = xTimerPendFunctionCallFromISR( vEventGroupClearBitsCallback, ( void * ) xEventGroup, ( 
 496:Middlewares/Third_Party/FreeRTOS/Source/event_groups.c **** 
 497:Middlewares/Third_Party/FreeRTOS/Source/event_groups.c **** 		return xReturn;
 498:Middlewares/Third_Party/FreeRTOS/Source/event_groups.c **** 	}
 499:Middlewares/Third_Party/FreeRTOS/Source/event_groups.c **** 
 500:Middlewares/Third_Party/FreeRTOS/Source/event_groups.c **** #endif
 501:Middlewares/Third_Party/FreeRTOS/Source/event_groups.c **** /*-----------------------------------------------------------*/
 502:Middlewares/Third_Party/FreeRTOS/Source/event_groups.c **** 
 503:Middlewares/Third_Party/FreeRTOS/Source/event_groups.c **** EventBits_t xEventGroupGetBitsFromISR( EventGroupHandle_t xEventGroup )
 504:Middlewares/Third_Party/FreeRTOS/Source/event_groups.c **** {
 505:Middlewares/Third_Party/FreeRTOS/Source/event_groups.c **** UBaseType_t uxSavedInterruptStatus;
 506:Middlewares/Third_Party/FreeRTOS/Source/event_groups.c **** EventGroup_t const * const pxEventBits = xEventGroup;
 507:Middlewares/Third_Party/FreeRTOS/Source/event_groups.c **** EventBits_t uxReturn;
 508:Middlewares/Third_Party/FreeRTOS/Source/event_groups.c **** 
 509:Middlewares/Third_Party/FreeRTOS/Source/event_groups.c **** 	uxSavedInterruptStatus = portSET_INTERRUPT_MASK_FROM_ISR();
 510:Middlewares/Third_Party/FreeRTOS/Source/event_groups.c **** 	{
 511:Middlewares/Third_Party/FreeRTOS/Source/event_groups.c **** 		uxReturn = pxEventBits->uxEventBits;
 512:Middlewares/Third_Party/FreeRTOS/Source/event_groups.c **** 	}
 513:Middlewares/Third_Party/FreeRTOS/Source/event_groups.c **** 	portCLEAR_INTERRUPT_MASK_FROM_ISR( uxSavedInterruptStatus );
 514:Middlewares/Third_Party/FreeRTOS/Source/event_groups.c **** 
 515:Middlewares/Third_Party/FreeRTOS/Source/event_groups.c **** 	return uxReturn;
 516:Middlewares/Third_Party/FreeRTOS/Source/event_groups.c **** } /*lint !e818 EventGroupHandle_t is a typedef used in other functions to so can't be pointer to co
 517:Middlewares/Third_Party/FreeRTOS/Source/event_groups.c **** /*-----------------------------------------------------------*/
 518:Middlewares/Third_Party/FreeRTOS/Source/event_groups.c **** 
 519:Middlewares/Third_Party/FreeRTOS/Source/event_groups.c **** EventBits_t xEventGroupSetBits( EventGroupHandle_t xEventGroup, const EventBits_t uxBitsToSet )
 520:Middlewares/Third_Party/FreeRTOS/Source/event_groups.c **** {
 521:Middlewares/Third_Party/FreeRTOS/Source/event_groups.c **** ListItem_t *pxListItem, *pxNext;
 522:Middlewares/Third_Party/FreeRTOS/Source/event_groups.c **** ListItem_t const *pxListEnd;
 523:Middlewares/Third_Party/FreeRTOS/Source/event_groups.c **** List_t const * pxList;
 524:Middlewares/Third_Party/FreeRTOS/Source/event_groups.c **** EventBits_t uxBitsToClear = 0, uxBitsWaitedFor, uxControlBits;
 525:Middlewares/Third_Party/FreeRTOS/Source/event_groups.c **** EventGroup_t *pxEventBits = xEventGroup;
 526:Middlewares/Third_Party/FreeRTOS/Source/event_groups.c **** BaseType_t xMatchFound = pdFALSE;
 527:Middlewares/Third_Party/FreeRTOS/Source/event_groups.c **** 
 528:Middlewares/Third_Party/FreeRTOS/Source/event_groups.c **** 	/* Check the user is not attempting to set the bits used by the kernel
 529:Middlewares/Third_Party/FreeRTOS/Source/event_groups.c **** 	itself. */
 530:Middlewares/Third_Party/FreeRTOS/Source/event_groups.c **** 	configASSERT( xEventGroup );
 531:Middlewares/Third_Party/FreeRTOS/Source/event_groups.c **** 	configASSERT( ( uxBitsToSet & eventEVENT_BITS_CONTROL_BYTES ) == 0 );
 532:Middlewares/Third_Party/FreeRTOS/Source/event_groups.c **** 
 533:Middlewares/Third_Party/FreeRTOS/Source/event_groups.c **** 	pxList = &( pxEventBits->xTasksWaitingForBits );
 534:Middlewares/Third_Party/FreeRTOS/Source/event_groups.c **** 	pxListEnd = listGET_END_MARKER( pxList ); /*lint !e826 !e740 !e9087 The mini list structure is use
 535:Middlewares/Third_Party/FreeRTOS/Source/event_groups.c **** 	vTaskSuspendAll();
 536:Middlewares/Third_Party/FreeRTOS/Source/event_groups.c **** 	{
 537:Middlewares/Third_Party/FreeRTOS/Source/event_groups.c **** 		traceEVENT_GROUP_SET_BITS( xEventGroup, uxBitsToSet );
 538:Middlewares/Third_Party/FreeRTOS/Source/event_groups.c **** 
 539:Middlewares/Third_Party/FreeRTOS/Source/event_groups.c **** 		pxListItem = listGET_HEAD_ENTRY( pxList );
 540:Middlewares/Third_Party/FreeRTOS/Source/event_groups.c **** 
 541:Middlewares/Third_Party/FreeRTOS/Source/event_groups.c **** 		/* Set the bits. */
 542:Middlewares/Third_Party/FreeRTOS/Source/event_groups.c **** 		pxEventBits->uxEventBits |= uxBitsToSet;
ARM GAS  C:\Users\Simon\AppData\Local\Temp\cckaAEQd.s 			page 11


 543:Middlewares/Third_Party/FreeRTOS/Source/event_groups.c **** 
 544:Middlewares/Third_Party/FreeRTOS/Source/event_groups.c **** 		/* See if the new bit value should unblock any tasks. */
 545:Middlewares/Third_Party/FreeRTOS/Source/event_groups.c **** 		while( pxListItem != pxListEnd )
 546:Middlewares/Third_Party/FreeRTOS/Source/event_groups.c **** 		{
 547:Middlewares/Third_Party/FreeRTOS/Source/event_groups.c **** 			pxNext = listGET_NEXT( pxListItem );
 548:Middlewares/Third_Party/FreeRTOS/Source/event_groups.c **** 			uxBitsWaitedFor = listGET_LIST_ITEM_VALUE( pxListItem );
 549:Middlewares/Third_Party/FreeRTOS/Source/event_groups.c **** 			xMatchFound = pdFALSE;
 550:Middlewares/Third_Party/FreeRTOS/Source/event_groups.c **** 
 551:Middlewares/Third_Party/FreeRTOS/Source/event_groups.c **** 			/* Split the bits waited for from the control bits. */
 552:Middlewares/Third_Party/FreeRTOS/Source/event_groups.c **** 			uxControlBits = uxBitsWaitedFor & eventEVENT_BITS_CONTROL_BYTES;
 553:Middlewares/Third_Party/FreeRTOS/Source/event_groups.c **** 			uxBitsWaitedFor &= ~eventEVENT_BITS_CONTROL_BYTES;
 554:Middlewares/Third_Party/FreeRTOS/Source/event_groups.c **** 
 555:Middlewares/Third_Party/FreeRTOS/Source/event_groups.c **** 			if( ( uxControlBits & eventWAIT_FOR_ALL_BITS ) == ( EventBits_t ) 0 )
 556:Middlewares/Third_Party/FreeRTOS/Source/event_groups.c **** 			{
 557:Middlewares/Third_Party/FreeRTOS/Source/event_groups.c **** 				/* Just looking for single bit being set. */
 558:Middlewares/Third_Party/FreeRTOS/Source/event_groups.c **** 				if( ( uxBitsWaitedFor & pxEventBits->uxEventBits ) != ( EventBits_t ) 0 )
 559:Middlewares/Third_Party/FreeRTOS/Source/event_groups.c **** 				{
 560:Middlewares/Third_Party/FreeRTOS/Source/event_groups.c **** 					xMatchFound = pdTRUE;
 561:Middlewares/Third_Party/FreeRTOS/Source/event_groups.c **** 				}
 562:Middlewares/Third_Party/FreeRTOS/Source/event_groups.c **** 				else
 563:Middlewares/Third_Party/FreeRTOS/Source/event_groups.c **** 				{
 564:Middlewares/Third_Party/FreeRTOS/Source/event_groups.c **** 					mtCOVERAGE_TEST_MARKER();
 565:Middlewares/Third_Party/FreeRTOS/Source/event_groups.c **** 				}
 566:Middlewares/Third_Party/FreeRTOS/Source/event_groups.c **** 			}
 567:Middlewares/Third_Party/FreeRTOS/Source/event_groups.c **** 			else if( ( uxBitsWaitedFor & pxEventBits->uxEventBits ) == uxBitsWaitedFor )
 568:Middlewares/Third_Party/FreeRTOS/Source/event_groups.c **** 			{
 569:Middlewares/Third_Party/FreeRTOS/Source/event_groups.c **** 				/* All bits are set. */
 570:Middlewares/Third_Party/FreeRTOS/Source/event_groups.c **** 				xMatchFound = pdTRUE;
 571:Middlewares/Third_Party/FreeRTOS/Source/event_groups.c **** 			}
 572:Middlewares/Third_Party/FreeRTOS/Source/event_groups.c **** 			else
 573:Middlewares/Third_Party/FreeRTOS/Source/event_groups.c **** 			{
 574:Middlewares/Third_Party/FreeRTOS/Source/event_groups.c **** 				/* Need all bits to be set, but not all the bits were set. */
 575:Middlewares/Third_Party/FreeRTOS/Source/event_groups.c **** 			}
 576:Middlewares/Third_Party/FreeRTOS/Source/event_groups.c **** 
 577:Middlewares/Third_Party/FreeRTOS/Source/event_groups.c **** 			if( xMatchFound != pdFALSE )
 578:Middlewares/Third_Party/FreeRTOS/Source/event_groups.c **** 			{
 579:Middlewares/Third_Party/FreeRTOS/Source/event_groups.c **** 				/* The bits match.  Should the bits be cleared on exit? */
 580:Middlewares/Third_Party/FreeRTOS/Source/event_groups.c **** 				if( ( uxControlBits & eventCLEAR_EVENTS_ON_EXIT_BIT ) != ( EventBits_t ) 0 )
 581:Middlewares/Third_Party/FreeRTOS/Source/event_groups.c **** 				{
 582:Middlewares/Third_Party/FreeRTOS/Source/event_groups.c **** 					uxBitsToClear |= uxBitsWaitedFor;
 583:Middlewares/Third_Party/FreeRTOS/Source/event_groups.c **** 				}
 584:Middlewares/Third_Party/FreeRTOS/Source/event_groups.c **** 				else
 585:Middlewares/Third_Party/FreeRTOS/Source/event_groups.c **** 				{
 586:Middlewares/Third_Party/FreeRTOS/Source/event_groups.c **** 					mtCOVERAGE_TEST_MARKER();
 587:Middlewares/Third_Party/FreeRTOS/Source/event_groups.c **** 				}
 588:Middlewares/Third_Party/FreeRTOS/Source/event_groups.c **** 
 589:Middlewares/Third_Party/FreeRTOS/Source/event_groups.c **** 				/* Store the actual event flag value in the task's event list
 590:Middlewares/Third_Party/FreeRTOS/Source/event_groups.c **** 				item before removing the task from the event list.  The
 591:Middlewares/Third_Party/FreeRTOS/Source/event_groups.c **** 				eventUNBLOCKED_DUE_TO_BIT_SET bit is set so the task knows
 592:Middlewares/Third_Party/FreeRTOS/Source/event_groups.c **** 				that is was unblocked due to its required bits matching, rather
 593:Middlewares/Third_Party/FreeRTOS/Source/event_groups.c **** 				than because it timed out. */
 594:Middlewares/Third_Party/FreeRTOS/Source/event_groups.c **** 				vTaskRemoveFromUnorderedEventList( pxListItem, pxEventBits->uxEventBits | eventUNBLOCKED_DUE_TO
 595:Middlewares/Third_Party/FreeRTOS/Source/event_groups.c **** 			}
 596:Middlewares/Third_Party/FreeRTOS/Source/event_groups.c **** 
 597:Middlewares/Third_Party/FreeRTOS/Source/event_groups.c **** 			/* Move onto the next list item.  Note pxListItem->pxNext is not
 598:Middlewares/Third_Party/FreeRTOS/Source/event_groups.c **** 			used here as the list item may have been removed from the event list
 599:Middlewares/Third_Party/FreeRTOS/Source/event_groups.c **** 			and inserted into the ready/pending reading list. */
ARM GAS  C:\Users\Simon\AppData\Local\Temp\cckaAEQd.s 			page 12


 600:Middlewares/Third_Party/FreeRTOS/Source/event_groups.c **** 			pxListItem = pxNext;
 601:Middlewares/Third_Party/FreeRTOS/Source/event_groups.c **** 		}
 602:Middlewares/Third_Party/FreeRTOS/Source/event_groups.c **** 
 603:Middlewares/Third_Party/FreeRTOS/Source/event_groups.c **** 		/* Clear any bits that matched when the eventCLEAR_EVENTS_ON_EXIT_BIT
 604:Middlewares/Third_Party/FreeRTOS/Source/event_groups.c **** 		bit was set in the control word. */
 605:Middlewares/Third_Party/FreeRTOS/Source/event_groups.c **** 		pxEventBits->uxEventBits &= ~uxBitsToClear;
 606:Middlewares/Third_Party/FreeRTOS/Source/event_groups.c **** 	}
 607:Middlewares/Third_Party/FreeRTOS/Source/event_groups.c **** 	( void ) xTaskResumeAll();
 608:Middlewares/Third_Party/FreeRTOS/Source/event_groups.c **** 
 609:Middlewares/Third_Party/FreeRTOS/Source/event_groups.c **** 	return pxEventBits->uxEventBits;
 610:Middlewares/Third_Party/FreeRTOS/Source/event_groups.c **** }
 611:Middlewares/Third_Party/FreeRTOS/Source/event_groups.c **** /*-----------------------------------------------------------*/
 612:Middlewares/Third_Party/FreeRTOS/Source/event_groups.c **** 
 613:Middlewares/Third_Party/FreeRTOS/Source/event_groups.c **** void vEventGroupDelete( EventGroupHandle_t xEventGroup )
 614:Middlewares/Third_Party/FreeRTOS/Source/event_groups.c **** {
 615:Middlewares/Third_Party/FreeRTOS/Source/event_groups.c **** EventGroup_t *pxEventBits = xEventGroup;
 616:Middlewares/Third_Party/FreeRTOS/Source/event_groups.c **** const List_t *pxTasksWaitingForBits = &( pxEventBits->xTasksWaitingForBits );
 617:Middlewares/Third_Party/FreeRTOS/Source/event_groups.c **** 
 618:Middlewares/Third_Party/FreeRTOS/Source/event_groups.c **** 	vTaskSuspendAll();
 619:Middlewares/Third_Party/FreeRTOS/Source/event_groups.c **** 	{
 620:Middlewares/Third_Party/FreeRTOS/Source/event_groups.c **** 		traceEVENT_GROUP_DELETE( xEventGroup );
 621:Middlewares/Third_Party/FreeRTOS/Source/event_groups.c **** 
 622:Middlewares/Third_Party/FreeRTOS/Source/event_groups.c **** 		while( listCURRENT_LIST_LENGTH( pxTasksWaitingForBits ) > ( UBaseType_t ) 0 )
 623:Middlewares/Third_Party/FreeRTOS/Source/event_groups.c **** 		{
 624:Middlewares/Third_Party/FreeRTOS/Source/event_groups.c **** 			/* Unblock the task, returning 0 as the event list is being deleted
 625:Middlewares/Third_Party/FreeRTOS/Source/event_groups.c **** 			and cannot therefore have any bits set. */
 626:Middlewares/Third_Party/FreeRTOS/Source/event_groups.c **** 			configASSERT( pxTasksWaitingForBits->xListEnd.pxNext != ( const ListItem_t * ) &( pxTasksWaiting
 627:Middlewares/Third_Party/FreeRTOS/Source/event_groups.c **** 			vTaskRemoveFromUnorderedEventList( pxTasksWaitingForBits->xListEnd.pxNext, eventUNBLOCKED_DUE_TO
 628:Middlewares/Third_Party/FreeRTOS/Source/event_groups.c **** 		}
 629:Middlewares/Third_Party/FreeRTOS/Source/event_groups.c **** 
 630:Middlewares/Third_Party/FreeRTOS/Source/event_groups.c **** 		#if( ( configSUPPORT_DYNAMIC_ALLOCATION == 1 ) && ( configSUPPORT_STATIC_ALLOCATION == 0 ) )
 631:Middlewares/Third_Party/FreeRTOS/Source/event_groups.c **** 		{
 632:Middlewares/Third_Party/FreeRTOS/Source/event_groups.c **** 			/* The event group can only have been allocated dynamically - free
 633:Middlewares/Third_Party/FreeRTOS/Source/event_groups.c **** 			it again. */
 634:Middlewares/Third_Party/FreeRTOS/Source/event_groups.c **** 			vPortFree( pxEventBits );
 635:Middlewares/Third_Party/FreeRTOS/Source/event_groups.c **** 		}
 636:Middlewares/Third_Party/FreeRTOS/Source/event_groups.c **** 		#elif( ( configSUPPORT_DYNAMIC_ALLOCATION == 1 ) && ( configSUPPORT_STATIC_ALLOCATION == 1 ) )
 637:Middlewares/Third_Party/FreeRTOS/Source/event_groups.c **** 		{
 638:Middlewares/Third_Party/FreeRTOS/Source/event_groups.c **** 			/* The event group could have been allocated statically or
 639:Middlewares/Third_Party/FreeRTOS/Source/event_groups.c **** 			dynamically, so check before attempting to free the memory. */
 640:Middlewares/Third_Party/FreeRTOS/Source/event_groups.c **** 			if( pxEventBits->ucStaticallyAllocated == ( uint8_t ) pdFALSE )
 641:Middlewares/Third_Party/FreeRTOS/Source/event_groups.c **** 			{
 642:Middlewares/Third_Party/FreeRTOS/Source/event_groups.c **** 				vPortFree( pxEventBits );
 643:Middlewares/Third_Party/FreeRTOS/Source/event_groups.c **** 			}
 644:Middlewares/Third_Party/FreeRTOS/Source/event_groups.c **** 			else
 645:Middlewares/Third_Party/FreeRTOS/Source/event_groups.c **** 			{
 646:Middlewares/Third_Party/FreeRTOS/Source/event_groups.c **** 				mtCOVERAGE_TEST_MARKER();
 647:Middlewares/Third_Party/FreeRTOS/Source/event_groups.c **** 			}
 648:Middlewares/Third_Party/FreeRTOS/Source/event_groups.c **** 		}
 649:Middlewares/Third_Party/FreeRTOS/Source/event_groups.c **** 		#endif /* configSUPPORT_DYNAMIC_ALLOCATION */
 650:Middlewares/Third_Party/FreeRTOS/Source/event_groups.c **** 	}
 651:Middlewares/Third_Party/FreeRTOS/Source/event_groups.c **** 	( void ) xTaskResumeAll();
 652:Middlewares/Third_Party/FreeRTOS/Source/event_groups.c **** }
 653:Middlewares/Third_Party/FreeRTOS/Source/event_groups.c **** /*-----------------------------------------------------------*/
 654:Middlewares/Third_Party/FreeRTOS/Source/event_groups.c **** 
 655:Middlewares/Third_Party/FreeRTOS/Source/event_groups.c **** /* For internal use only - execute a 'set bits' command that was pended from
 656:Middlewares/Third_Party/FreeRTOS/Source/event_groups.c **** an interrupt. */
ARM GAS  C:\Users\Simon\AppData\Local\Temp\cckaAEQd.s 			page 13


 657:Middlewares/Third_Party/FreeRTOS/Source/event_groups.c **** void vEventGroupSetBitsCallback( void *pvEventGroup, const uint32_t ulBitsToSet )
 658:Middlewares/Third_Party/FreeRTOS/Source/event_groups.c **** {
 659:Middlewares/Third_Party/FreeRTOS/Source/event_groups.c **** 	( void ) xEventGroupSetBits( pvEventGroup, ( EventBits_t ) ulBitsToSet ); /*lint !e9079 Can't avoi
 660:Middlewares/Third_Party/FreeRTOS/Source/event_groups.c **** }
 661:Middlewares/Third_Party/FreeRTOS/Source/event_groups.c **** /*-----------------------------------------------------------*/
 662:Middlewares/Third_Party/FreeRTOS/Source/event_groups.c **** 
 663:Middlewares/Third_Party/FreeRTOS/Source/event_groups.c **** /* For internal use only - execute a 'clear bits' command that was pended from
 664:Middlewares/Third_Party/FreeRTOS/Source/event_groups.c **** an interrupt. */
 665:Middlewares/Third_Party/FreeRTOS/Source/event_groups.c **** void vEventGroupClearBitsCallback( void *pvEventGroup, const uint32_t ulBitsToClear )
 666:Middlewares/Third_Party/FreeRTOS/Source/event_groups.c **** {
  30              		.loc 1 666 1 view -0
  31              		.cfi_startproc
  32              		@ args = 0, pretend = 0, frame = 0
  33              		@ frame_needed = 0, uses_anonymous_args = 0
 667:Middlewares/Third_Party/FreeRTOS/Source/event_groups.c **** 	( void ) xEventGroupClearBits( pvEventGroup, ( EventBits_t ) ulBitsToClear ); /*lint !e9079 Can't 
  34              		.loc 1 667 2 view .LVU1
  35              	.LBB69:
  36              	.LBI69:
 461:Middlewares/Third_Party/FreeRTOS/Source/event_groups.c **** {
  37              		.loc 1 461 13 view .LVU2
  38              	.LBB70:
 463:Middlewares/Third_Party/FreeRTOS/Source/event_groups.c **** EventBits_t uxReturn;
  39              		.loc 1 463 1 view .LVU3
 464:Middlewares/Third_Party/FreeRTOS/Source/event_groups.c **** 
  40              		.loc 1 464 1 view .LVU4
 468:Middlewares/Third_Party/FreeRTOS/Source/event_groups.c **** 	configASSERT( ( uxBitsToClear & eventEVENT_BITS_CONTROL_BYTES ) == 0 );
  41              		.loc 1 468 2 view .LVU5
  42              	.LBE70:
  43              	.LBE69:
 666:Middlewares/Third_Party/FreeRTOS/Source/event_groups.c **** 	( void ) xEventGroupClearBits( pvEventGroup, ( EventBits_t ) ulBitsToClear ); /*lint !e9079 Can't 
  44              		.loc 1 666 1 is_stmt 0 view .LVU6
  45 0000 38B5     		push	{r3, r4, r5, lr}
  46              	.LCFI0:
  47              		.cfi_def_cfa_offset 16
  48              		.cfi_offset 3, -16
  49              		.cfi_offset 4, -12
  50              		.cfi_offset 5, -8
  51              		.cfi_offset 14, -4
  52              	.LBB81:
  53              	.LBB79:
 468:Middlewares/Third_Party/FreeRTOS/Source/event_groups.c **** 	configASSERT( ( uxBitsToClear & eventEVENT_BITS_CONTROL_BYTES ) == 0 );
  54              		.loc 1 468 2 view .LVU7
  55 0002 B8B1     		cbz	r0, .L8
 468:Middlewares/Third_Party/FreeRTOS/Source/event_groups.c **** 	configASSERT( ( uxBitsToClear & eventEVENT_BITS_CONTROL_BYTES ) == 0 );
  56              		.loc 1 468 29 is_stmt 1 view .LVU8
 469:Middlewares/Third_Party/FreeRTOS/Source/event_groups.c **** 
  57              		.loc 1 469 2 view .LVU9
  58 0004 11F07F4F 		tst	r1, #-16777216
  59 0008 0C46     		mov	r4, r1
  60 000a 08D0     		beq	.L4
 469:Middlewares/Third_Party/FreeRTOS/Source/event_groups.c **** 
  61              		.loc 1 469 2 view .LVU10
  62              	.LBB71:
  63              	.LBI71:
  64              		.file 2 "Middlewares/Third_Party/FreeRTOS/Source/portable/GCC/ARM_CM4F/portmacro.h"
   1:Middlewares/Third_Party/FreeRTOS/Source/portable/GCC/ARM_CM4F/portmacro.h **** /*
   2:Middlewares/Third_Party/FreeRTOS/Source/portable/GCC/ARM_CM4F/portmacro.h ****  * FreeRTOS Kernel V10.3.1
ARM GAS  C:\Users\Simon\AppData\Local\Temp\cckaAEQd.s 			page 14


   3:Middlewares/Third_Party/FreeRTOS/Source/portable/GCC/ARM_CM4F/portmacro.h ****  * Copyright (C) 2020 Amazon.com, Inc. or its affiliates.  All Rights Reserved.
   4:Middlewares/Third_Party/FreeRTOS/Source/portable/GCC/ARM_CM4F/portmacro.h ****  *
   5:Middlewares/Third_Party/FreeRTOS/Source/portable/GCC/ARM_CM4F/portmacro.h ****  * Permission is hereby granted, free of charge, to any person obtaining a copy of
   6:Middlewares/Third_Party/FreeRTOS/Source/portable/GCC/ARM_CM4F/portmacro.h ****  * this software and associated documentation files (the "Software"), to deal in
   7:Middlewares/Third_Party/FreeRTOS/Source/portable/GCC/ARM_CM4F/portmacro.h ****  * the Software without restriction, including without limitation the rights to
   8:Middlewares/Third_Party/FreeRTOS/Source/portable/GCC/ARM_CM4F/portmacro.h ****  * use, copy, modify, merge, publish, distribute, sublicense, and/or sell copies of
   9:Middlewares/Third_Party/FreeRTOS/Source/portable/GCC/ARM_CM4F/portmacro.h ****  * the Software, and to permit persons to whom the Software is furnished to do so,
  10:Middlewares/Third_Party/FreeRTOS/Source/portable/GCC/ARM_CM4F/portmacro.h ****  * subject to the following conditions:
  11:Middlewares/Third_Party/FreeRTOS/Source/portable/GCC/ARM_CM4F/portmacro.h ****  *
  12:Middlewares/Third_Party/FreeRTOS/Source/portable/GCC/ARM_CM4F/portmacro.h ****  * The above copyright notice and this permission notice shall be included in all
  13:Middlewares/Third_Party/FreeRTOS/Source/portable/GCC/ARM_CM4F/portmacro.h ****  * copies or substantial portions of the Software.
  14:Middlewares/Third_Party/FreeRTOS/Source/portable/GCC/ARM_CM4F/portmacro.h ****  *
  15:Middlewares/Third_Party/FreeRTOS/Source/portable/GCC/ARM_CM4F/portmacro.h ****  * THE SOFTWARE IS PROVIDED "AS IS", WITHOUT WARRANTY OF ANY KIND, EXPRESS OR
  16:Middlewares/Third_Party/FreeRTOS/Source/portable/GCC/ARM_CM4F/portmacro.h ****  * IMPLIED, INCLUDING BUT NOT LIMITED TO THE WARRANTIES OF MERCHANTABILITY, FITNESS
  17:Middlewares/Third_Party/FreeRTOS/Source/portable/GCC/ARM_CM4F/portmacro.h ****  * FOR A PARTICULAR PURPOSE AND NONINFRINGEMENT. IN NO EVENT SHALL THE AUTHORS OR
  18:Middlewares/Third_Party/FreeRTOS/Source/portable/GCC/ARM_CM4F/portmacro.h ****  * COPYRIGHT HOLDERS BE LIABLE FOR ANY CLAIM, DAMAGES OR OTHER LIABILITY, WHETHER
  19:Middlewares/Third_Party/FreeRTOS/Source/portable/GCC/ARM_CM4F/portmacro.h ****  * IN AN ACTION OF CONTRACT, TORT OR OTHERWISE, ARISING FROM, OUT OF OR IN
  20:Middlewares/Third_Party/FreeRTOS/Source/portable/GCC/ARM_CM4F/portmacro.h ****  * CONNECTION WITH THE SOFTWARE OR THE USE OR OTHER DEALINGS IN THE SOFTWARE.
  21:Middlewares/Third_Party/FreeRTOS/Source/portable/GCC/ARM_CM4F/portmacro.h ****  *
  22:Middlewares/Third_Party/FreeRTOS/Source/portable/GCC/ARM_CM4F/portmacro.h ****  * http://www.FreeRTOS.org
  23:Middlewares/Third_Party/FreeRTOS/Source/portable/GCC/ARM_CM4F/portmacro.h ****  * http://aws.amazon.com/freertos
  24:Middlewares/Third_Party/FreeRTOS/Source/portable/GCC/ARM_CM4F/portmacro.h ****  *
  25:Middlewares/Third_Party/FreeRTOS/Source/portable/GCC/ARM_CM4F/portmacro.h ****  * 1 tab == 4 spaces!
  26:Middlewares/Third_Party/FreeRTOS/Source/portable/GCC/ARM_CM4F/portmacro.h ****  */
  27:Middlewares/Third_Party/FreeRTOS/Source/portable/GCC/ARM_CM4F/portmacro.h **** 
  28:Middlewares/Third_Party/FreeRTOS/Source/portable/GCC/ARM_CM4F/portmacro.h **** 
  29:Middlewares/Third_Party/FreeRTOS/Source/portable/GCC/ARM_CM4F/portmacro.h **** #ifndef PORTMACRO_H
  30:Middlewares/Third_Party/FreeRTOS/Source/portable/GCC/ARM_CM4F/portmacro.h **** #define PORTMACRO_H
  31:Middlewares/Third_Party/FreeRTOS/Source/portable/GCC/ARM_CM4F/portmacro.h **** 
  32:Middlewares/Third_Party/FreeRTOS/Source/portable/GCC/ARM_CM4F/portmacro.h **** #ifdef __cplusplus
  33:Middlewares/Third_Party/FreeRTOS/Source/portable/GCC/ARM_CM4F/portmacro.h **** extern "C" {
  34:Middlewares/Third_Party/FreeRTOS/Source/portable/GCC/ARM_CM4F/portmacro.h **** #endif
  35:Middlewares/Third_Party/FreeRTOS/Source/portable/GCC/ARM_CM4F/portmacro.h **** 
  36:Middlewares/Third_Party/FreeRTOS/Source/portable/GCC/ARM_CM4F/portmacro.h **** /*-----------------------------------------------------------
  37:Middlewares/Third_Party/FreeRTOS/Source/portable/GCC/ARM_CM4F/portmacro.h ****  * Port specific definitions.
  38:Middlewares/Third_Party/FreeRTOS/Source/portable/GCC/ARM_CM4F/portmacro.h ****  *
  39:Middlewares/Third_Party/FreeRTOS/Source/portable/GCC/ARM_CM4F/portmacro.h ****  * The settings in this file configure FreeRTOS correctly for the
  40:Middlewares/Third_Party/FreeRTOS/Source/portable/GCC/ARM_CM4F/portmacro.h ****  * given hardware and compiler.
  41:Middlewares/Third_Party/FreeRTOS/Source/portable/GCC/ARM_CM4F/portmacro.h ****  *
  42:Middlewares/Third_Party/FreeRTOS/Source/portable/GCC/ARM_CM4F/portmacro.h ****  * These settings should not be altered.
  43:Middlewares/Third_Party/FreeRTOS/Source/portable/GCC/ARM_CM4F/portmacro.h ****  *-----------------------------------------------------------
  44:Middlewares/Third_Party/FreeRTOS/Source/portable/GCC/ARM_CM4F/portmacro.h ****  */
  45:Middlewares/Third_Party/FreeRTOS/Source/portable/GCC/ARM_CM4F/portmacro.h **** 
  46:Middlewares/Third_Party/FreeRTOS/Source/portable/GCC/ARM_CM4F/portmacro.h **** /* Type definitions. */
  47:Middlewares/Third_Party/FreeRTOS/Source/portable/GCC/ARM_CM4F/portmacro.h **** #define portCHAR		char
  48:Middlewares/Third_Party/FreeRTOS/Source/portable/GCC/ARM_CM4F/portmacro.h **** #define portFLOAT		float
  49:Middlewares/Third_Party/FreeRTOS/Source/portable/GCC/ARM_CM4F/portmacro.h **** #define portDOUBLE		double
  50:Middlewares/Third_Party/FreeRTOS/Source/portable/GCC/ARM_CM4F/portmacro.h **** #define portLONG		long
  51:Middlewares/Third_Party/FreeRTOS/Source/portable/GCC/ARM_CM4F/portmacro.h **** #define portSHORT		short
  52:Middlewares/Third_Party/FreeRTOS/Source/portable/GCC/ARM_CM4F/portmacro.h **** #define portSTACK_TYPE	uint32_t
  53:Middlewares/Third_Party/FreeRTOS/Source/portable/GCC/ARM_CM4F/portmacro.h **** #define portBASE_TYPE	long
  54:Middlewares/Third_Party/FreeRTOS/Source/portable/GCC/ARM_CM4F/portmacro.h **** 
  55:Middlewares/Third_Party/FreeRTOS/Source/portable/GCC/ARM_CM4F/portmacro.h **** typedef portSTACK_TYPE StackType_t;
  56:Middlewares/Third_Party/FreeRTOS/Source/portable/GCC/ARM_CM4F/portmacro.h **** typedef long BaseType_t;
  57:Middlewares/Third_Party/FreeRTOS/Source/portable/GCC/ARM_CM4F/portmacro.h **** typedef unsigned long UBaseType_t;
  58:Middlewares/Third_Party/FreeRTOS/Source/portable/GCC/ARM_CM4F/portmacro.h **** 
  59:Middlewares/Third_Party/FreeRTOS/Source/portable/GCC/ARM_CM4F/portmacro.h **** #if( configUSE_16_BIT_TICKS == 1 )
ARM GAS  C:\Users\Simon\AppData\Local\Temp\cckaAEQd.s 			page 15


  60:Middlewares/Third_Party/FreeRTOS/Source/portable/GCC/ARM_CM4F/portmacro.h **** 	typedef uint16_t TickType_t;
  61:Middlewares/Third_Party/FreeRTOS/Source/portable/GCC/ARM_CM4F/portmacro.h **** 	#define portMAX_DELAY ( TickType_t ) 0xffff
  62:Middlewares/Third_Party/FreeRTOS/Source/portable/GCC/ARM_CM4F/portmacro.h **** #else
  63:Middlewares/Third_Party/FreeRTOS/Source/portable/GCC/ARM_CM4F/portmacro.h **** 	typedef uint32_t TickType_t;
  64:Middlewares/Third_Party/FreeRTOS/Source/portable/GCC/ARM_CM4F/portmacro.h **** 	#define portMAX_DELAY ( TickType_t ) 0xffffffffUL
  65:Middlewares/Third_Party/FreeRTOS/Source/portable/GCC/ARM_CM4F/portmacro.h **** 
  66:Middlewares/Third_Party/FreeRTOS/Source/portable/GCC/ARM_CM4F/portmacro.h **** 	/* 32-bit tick type on a 32-bit architecture, so reads of the tick count do
  67:Middlewares/Third_Party/FreeRTOS/Source/portable/GCC/ARM_CM4F/portmacro.h **** 	not need to be guarded with a critical section. */
  68:Middlewares/Third_Party/FreeRTOS/Source/portable/GCC/ARM_CM4F/portmacro.h **** 	#define portTICK_TYPE_IS_ATOMIC 1
  69:Middlewares/Third_Party/FreeRTOS/Source/portable/GCC/ARM_CM4F/portmacro.h **** #endif
  70:Middlewares/Third_Party/FreeRTOS/Source/portable/GCC/ARM_CM4F/portmacro.h **** /*-----------------------------------------------------------*/
  71:Middlewares/Third_Party/FreeRTOS/Source/portable/GCC/ARM_CM4F/portmacro.h **** 
  72:Middlewares/Third_Party/FreeRTOS/Source/portable/GCC/ARM_CM4F/portmacro.h **** /* Architecture specifics. */
  73:Middlewares/Third_Party/FreeRTOS/Source/portable/GCC/ARM_CM4F/portmacro.h **** #define portSTACK_GROWTH			( -1 )
  74:Middlewares/Third_Party/FreeRTOS/Source/portable/GCC/ARM_CM4F/portmacro.h **** #define portTICK_PERIOD_MS			( ( TickType_t ) 1000 / configTICK_RATE_HZ )
  75:Middlewares/Third_Party/FreeRTOS/Source/portable/GCC/ARM_CM4F/portmacro.h **** #define portBYTE_ALIGNMENT			8
  76:Middlewares/Third_Party/FreeRTOS/Source/portable/GCC/ARM_CM4F/portmacro.h **** /*-----------------------------------------------------------*/
  77:Middlewares/Third_Party/FreeRTOS/Source/portable/GCC/ARM_CM4F/portmacro.h **** 
  78:Middlewares/Third_Party/FreeRTOS/Source/portable/GCC/ARM_CM4F/portmacro.h **** /* Scheduler utilities. */
  79:Middlewares/Third_Party/FreeRTOS/Source/portable/GCC/ARM_CM4F/portmacro.h **** #define portYIELD() 															\
  80:Middlewares/Third_Party/FreeRTOS/Source/portable/GCC/ARM_CM4F/portmacro.h **** {																				\
  81:Middlewares/Third_Party/FreeRTOS/Source/portable/GCC/ARM_CM4F/portmacro.h **** 	/* Set a PendSV to request a context switch. */								\
  82:Middlewares/Third_Party/FreeRTOS/Source/portable/GCC/ARM_CM4F/portmacro.h **** 	portNVIC_INT_CTRL_REG = portNVIC_PENDSVSET_BIT;								\
  83:Middlewares/Third_Party/FreeRTOS/Source/portable/GCC/ARM_CM4F/portmacro.h **** 																				\
  84:Middlewares/Third_Party/FreeRTOS/Source/portable/GCC/ARM_CM4F/portmacro.h **** 	/* Barriers are normally not required but do ensure the code is completely	\
  85:Middlewares/Third_Party/FreeRTOS/Source/portable/GCC/ARM_CM4F/portmacro.h **** 	within the specified behaviour for the architecture. */						\
  86:Middlewares/Third_Party/FreeRTOS/Source/portable/GCC/ARM_CM4F/portmacro.h **** 	__asm volatile( "dsb" ::: "memory" );										\
  87:Middlewares/Third_Party/FreeRTOS/Source/portable/GCC/ARM_CM4F/portmacro.h **** 	__asm volatile( "isb" );													\
  88:Middlewares/Third_Party/FreeRTOS/Source/portable/GCC/ARM_CM4F/portmacro.h **** }
  89:Middlewares/Third_Party/FreeRTOS/Source/portable/GCC/ARM_CM4F/portmacro.h **** 
  90:Middlewares/Third_Party/FreeRTOS/Source/portable/GCC/ARM_CM4F/portmacro.h **** #define portNVIC_INT_CTRL_REG		( * ( ( volatile uint32_t * ) 0xe000ed04 ) )
  91:Middlewares/Third_Party/FreeRTOS/Source/portable/GCC/ARM_CM4F/portmacro.h **** #define portNVIC_PENDSVSET_BIT		( 1UL << 28UL )
  92:Middlewares/Third_Party/FreeRTOS/Source/portable/GCC/ARM_CM4F/portmacro.h **** #define portEND_SWITCHING_ISR( xSwitchRequired ) if( xSwitchRequired != pdFALSE ) portYIELD()
  93:Middlewares/Third_Party/FreeRTOS/Source/portable/GCC/ARM_CM4F/portmacro.h **** #define portYIELD_FROM_ISR( x ) portEND_SWITCHING_ISR( x )
  94:Middlewares/Third_Party/FreeRTOS/Source/portable/GCC/ARM_CM4F/portmacro.h **** /*-----------------------------------------------------------*/
  95:Middlewares/Third_Party/FreeRTOS/Source/portable/GCC/ARM_CM4F/portmacro.h **** 
  96:Middlewares/Third_Party/FreeRTOS/Source/portable/GCC/ARM_CM4F/portmacro.h **** /* Critical section management. */
  97:Middlewares/Third_Party/FreeRTOS/Source/portable/GCC/ARM_CM4F/portmacro.h **** extern void vPortEnterCritical( void );
  98:Middlewares/Third_Party/FreeRTOS/Source/portable/GCC/ARM_CM4F/portmacro.h **** extern void vPortExitCritical( void );
  99:Middlewares/Third_Party/FreeRTOS/Source/portable/GCC/ARM_CM4F/portmacro.h **** #define portSET_INTERRUPT_MASK_FROM_ISR()		ulPortRaiseBASEPRI()
 100:Middlewares/Third_Party/FreeRTOS/Source/portable/GCC/ARM_CM4F/portmacro.h **** #define portCLEAR_INTERRUPT_MASK_FROM_ISR(x)	vPortSetBASEPRI(x)
 101:Middlewares/Third_Party/FreeRTOS/Source/portable/GCC/ARM_CM4F/portmacro.h **** #define portDISABLE_INTERRUPTS()				vPortRaiseBASEPRI()
 102:Middlewares/Third_Party/FreeRTOS/Source/portable/GCC/ARM_CM4F/portmacro.h **** #define portENABLE_INTERRUPTS()					vPortSetBASEPRI(0)
 103:Middlewares/Third_Party/FreeRTOS/Source/portable/GCC/ARM_CM4F/portmacro.h **** #define portENTER_CRITICAL()					vPortEnterCritical()
 104:Middlewares/Third_Party/FreeRTOS/Source/portable/GCC/ARM_CM4F/portmacro.h **** #define portEXIT_CRITICAL()						vPortExitCritical()
 105:Middlewares/Third_Party/FreeRTOS/Source/portable/GCC/ARM_CM4F/portmacro.h **** 
 106:Middlewares/Third_Party/FreeRTOS/Source/portable/GCC/ARM_CM4F/portmacro.h **** /*-----------------------------------------------------------*/
 107:Middlewares/Third_Party/FreeRTOS/Source/portable/GCC/ARM_CM4F/portmacro.h **** 
 108:Middlewares/Third_Party/FreeRTOS/Source/portable/GCC/ARM_CM4F/portmacro.h **** /* Task function macros as described on the FreeRTOS.org WEB site.  These are
 109:Middlewares/Third_Party/FreeRTOS/Source/portable/GCC/ARM_CM4F/portmacro.h **** not necessary for to use this port.  They are defined so the common demo files
 110:Middlewares/Third_Party/FreeRTOS/Source/portable/GCC/ARM_CM4F/portmacro.h **** (which build with all the ports) will build. */
 111:Middlewares/Third_Party/FreeRTOS/Source/portable/GCC/ARM_CM4F/portmacro.h **** #define portTASK_FUNCTION_PROTO( vFunction, pvParameters ) void vFunction( void *pvParameters )
 112:Middlewares/Third_Party/FreeRTOS/Source/portable/GCC/ARM_CM4F/portmacro.h **** #define portTASK_FUNCTION( vFunction, pvParameters ) void vFunction( void *pvParameters )
 113:Middlewares/Third_Party/FreeRTOS/Source/portable/GCC/ARM_CM4F/portmacro.h **** /*-----------------------------------------------------------*/
 114:Middlewares/Third_Party/FreeRTOS/Source/portable/GCC/ARM_CM4F/portmacro.h **** 
 115:Middlewares/Third_Party/FreeRTOS/Source/portable/GCC/ARM_CM4F/portmacro.h **** /* Tickless idle/low power functionality. */
 116:Middlewares/Third_Party/FreeRTOS/Source/portable/GCC/ARM_CM4F/portmacro.h **** #ifndef portSUPPRESS_TICKS_AND_SLEEP
ARM GAS  C:\Users\Simon\AppData\Local\Temp\cckaAEQd.s 			page 16


 117:Middlewares/Third_Party/FreeRTOS/Source/portable/GCC/ARM_CM4F/portmacro.h **** 	extern void vPortSuppressTicksAndSleep( TickType_t xExpectedIdleTime );
 118:Middlewares/Third_Party/FreeRTOS/Source/portable/GCC/ARM_CM4F/portmacro.h **** 	#define portSUPPRESS_TICKS_AND_SLEEP( xExpectedIdleTime ) vPortSuppressTicksAndSleep( xExpectedIdl
 119:Middlewares/Third_Party/FreeRTOS/Source/portable/GCC/ARM_CM4F/portmacro.h **** #endif
 120:Middlewares/Third_Party/FreeRTOS/Source/portable/GCC/ARM_CM4F/portmacro.h **** /*-----------------------------------------------------------*/
 121:Middlewares/Third_Party/FreeRTOS/Source/portable/GCC/ARM_CM4F/portmacro.h **** 
 122:Middlewares/Third_Party/FreeRTOS/Source/portable/GCC/ARM_CM4F/portmacro.h **** /* Architecture specific optimisations. */
 123:Middlewares/Third_Party/FreeRTOS/Source/portable/GCC/ARM_CM4F/portmacro.h **** #ifndef configUSE_PORT_OPTIMISED_TASK_SELECTION
 124:Middlewares/Third_Party/FreeRTOS/Source/portable/GCC/ARM_CM4F/portmacro.h **** 	#define configUSE_PORT_OPTIMISED_TASK_SELECTION 1
 125:Middlewares/Third_Party/FreeRTOS/Source/portable/GCC/ARM_CM4F/portmacro.h **** #endif
 126:Middlewares/Third_Party/FreeRTOS/Source/portable/GCC/ARM_CM4F/portmacro.h **** 
 127:Middlewares/Third_Party/FreeRTOS/Source/portable/GCC/ARM_CM4F/portmacro.h **** #if configUSE_PORT_OPTIMISED_TASK_SELECTION == 1
 128:Middlewares/Third_Party/FreeRTOS/Source/portable/GCC/ARM_CM4F/portmacro.h **** 
 129:Middlewares/Third_Party/FreeRTOS/Source/portable/GCC/ARM_CM4F/portmacro.h **** 	/* Generic helper function. */
 130:Middlewares/Third_Party/FreeRTOS/Source/portable/GCC/ARM_CM4F/portmacro.h **** 	__attribute__( ( always_inline ) ) static inline uint8_t ucPortCountLeadingZeros( uint32_t ulBitma
 131:Middlewares/Third_Party/FreeRTOS/Source/portable/GCC/ARM_CM4F/portmacro.h **** 	{
 132:Middlewares/Third_Party/FreeRTOS/Source/portable/GCC/ARM_CM4F/portmacro.h **** 	uint8_t ucReturn;
 133:Middlewares/Third_Party/FreeRTOS/Source/portable/GCC/ARM_CM4F/portmacro.h **** 
 134:Middlewares/Third_Party/FreeRTOS/Source/portable/GCC/ARM_CM4F/portmacro.h **** 		__asm volatile ( "clz %0, %1" : "=r" ( ucReturn ) : "r" ( ulBitmap ) : "memory" );
 135:Middlewares/Third_Party/FreeRTOS/Source/portable/GCC/ARM_CM4F/portmacro.h **** 		return ucReturn;
 136:Middlewares/Third_Party/FreeRTOS/Source/portable/GCC/ARM_CM4F/portmacro.h **** 	}
 137:Middlewares/Third_Party/FreeRTOS/Source/portable/GCC/ARM_CM4F/portmacro.h **** 
 138:Middlewares/Third_Party/FreeRTOS/Source/portable/GCC/ARM_CM4F/portmacro.h **** 	/* Check the configuration. */
 139:Middlewares/Third_Party/FreeRTOS/Source/portable/GCC/ARM_CM4F/portmacro.h **** 	#if( configMAX_PRIORITIES > 32 )
 140:Middlewares/Third_Party/FreeRTOS/Source/portable/GCC/ARM_CM4F/portmacro.h **** 		#error configUSE_PORT_OPTIMISED_TASK_SELECTION can only be set to 1 when configMAX_PRIORITIES is 
 141:Middlewares/Third_Party/FreeRTOS/Source/portable/GCC/ARM_CM4F/portmacro.h **** 	#endif
 142:Middlewares/Third_Party/FreeRTOS/Source/portable/GCC/ARM_CM4F/portmacro.h **** 
 143:Middlewares/Third_Party/FreeRTOS/Source/portable/GCC/ARM_CM4F/portmacro.h **** 	/* Store/clear the ready priorities in a bit map. */
 144:Middlewares/Third_Party/FreeRTOS/Source/portable/GCC/ARM_CM4F/portmacro.h **** 	#define portRECORD_READY_PRIORITY( uxPriority, uxReadyPriorities ) ( uxReadyPriorities ) |= ( 1UL 
 145:Middlewares/Third_Party/FreeRTOS/Source/portable/GCC/ARM_CM4F/portmacro.h **** 	#define portRESET_READY_PRIORITY( uxPriority, uxReadyPriorities ) ( uxReadyPriorities ) &= ~( 1UL 
 146:Middlewares/Third_Party/FreeRTOS/Source/portable/GCC/ARM_CM4F/portmacro.h **** 
 147:Middlewares/Third_Party/FreeRTOS/Source/portable/GCC/ARM_CM4F/portmacro.h **** 	/*-----------------------------------------------------------*/
 148:Middlewares/Third_Party/FreeRTOS/Source/portable/GCC/ARM_CM4F/portmacro.h **** 
 149:Middlewares/Third_Party/FreeRTOS/Source/portable/GCC/ARM_CM4F/portmacro.h **** 	#define portGET_HIGHEST_PRIORITY( uxTopPriority, uxReadyPriorities ) uxTopPriority = ( 31UL - ( ui
 150:Middlewares/Third_Party/FreeRTOS/Source/portable/GCC/ARM_CM4F/portmacro.h **** 
 151:Middlewares/Third_Party/FreeRTOS/Source/portable/GCC/ARM_CM4F/portmacro.h **** #endif /* configUSE_PORT_OPTIMISED_TASK_SELECTION */
 152:Middlewares/Third_Party/FreeRTOS/Source/portable/GCC/ARM_CM4F/portmacro.h **** 
 153:Middlewares/Third_Party/FreeRTOS/Source/portable/GCC/ARM_CM4F/portmacro.h **** /*-----------------------------------------------------------*/
 154:Middlewares/Third_Party/FreeRTOS/Source/portable/GCC/ARM_CM4F/portmacro.h **** 
 155:Middlewares/Third_Party/FreeRTOS/Source/portable/GCC/ARM_CM4F/portmacro.h **** #ifdef configASSERT
 156:Middlewares/Third_Party/FreeRTOS/Source/portable/GCC/ARM_CM4F/portmacro.h **** 	void vPortValidateInterruptPriority( void );
 157:Middlewares/Third_Party/FreeRTOS/Source/portable/GCC/ARM_CM4F/portmacro.h **** 	#define portASSERT_IF_INTERRUPT_PRIORITY_INVALID() 	vPortValidateInterruptPriority()
 158:Middlewares/Third_Party/FreeRTOS/Source/portable/GCC/ARM_CM4F/portmacro.h **** #endif
 159:Middlewares/Third_Party/FreeRTOS/Source/portable/GCC/ARM_CM4F/portmacro.h **** 
 160:Middlewares/Third_Party/FreeRTOS/Source/portable/GCC/ARM_CM4F/portmacro.h **** /* portNOP() is not required by this port. */
 161:Middlewares/Third_Party/FreeRTOS/Source/portable/GCC/ARM_CM4F/portmacro.h **** #define portNOP()
 162:Middlewares/Third_Party/FreeRTOS/Source/portable/GCC/ARM_CM4F/portmacro.h **** 
 163:Middlewares/Third_Party/FreeRTOS/Source/portable/GCC/ARM_CM4F/portmacro.h **** #define portINLINE	__inline
 164:Middlewares/Third_Party/FreeRTOS/Source/portable/GCC/ARM_CM4F/portmacro.h **** 
 165:Middlewares/Third_Party/FreeRTOS/Source/portable/GCC/ARM_CM4F/portmacro.h **** #ifndef portFORCE_INLINE
 166:Middlewares/Third_Party/FreeRTOS/Source/portable/GCC/ARM_CM4F/portmacro.h **** 	#define portFORCE_INLINE inline __attribute__(( always_inline))
 167:Middlewares/Third_Party/FreeRTOS/Source/portable/GCC/ARM_CM4F/portmacro.h **** #endif
 168:Middlewares/Third_Party/FreeRTOS/Source/portable/GCC/ARM_CM4F/portmacro.h **** 
 169:Middlewares/Third_Party/FreeRTOS/Source/portable/GCC/ARM_CM4F/portmacro.h **** portFORCE_INLINE static BaseType_t xPortIsInsideInterrupt( void )
 170:Middlewares/Third_Party/FreeRTOS/Source/portable/GCC/ARM_CM4F/portmacro.h **** {
 171:Middlewares/Third_Party/FreeRTOS/Source/portable/GCC/ARM_CM4F/portmacro.h **** uint32_t ulCurrentInterrupt;
 172:Middlewares/Third_Party/FreeRTOS/Source/portable/GCC/ARM_CM4F/portmacro.h **** BaseType_t xReturn;
 173:Middlewares/Third_Party/FreeRTOS/Source/portable/GCC/ARM_CM4F/portmacro.h **** 
ARM GAS  C:\Users\Simon\AppData\Local\Temp\cckaAEQd.s 			page 17


 174:Middlewares/Third_Party/FreeRTOS/Source/portable/GCC/ARM_CM4F/portmacro.h **** 	/* Obtain the number of the currently executing interrupt. */
 175:Middlewares/Third_Party/FreeRTOS/Source/portable/GCC/ARM_CM4F/portmacro.h **** 	__asm volatile( "mrs %0, ipsr" : "=r"( ulCurrentInterrupt ) :: "memory" );
 176:Middlewares/Third_Party/FreeRTOS/Source/portable/GCC/ARM_CM4F/portmacro.h **** 
 177:Middlewares/Third_Party/FreeRTOS/Source/portable/GCC/ARM_CM4F/portmacro.h **** 	if( ulCurrentInterrupt == 0 )
 178:Middlewares/Third_Party/FreeRTOS/Source/portable/GCC/ARM_CM4F/portmacro.h **** 	{
 179:Middlewares/Third_Party/FreeRTOS/Source/portable/GCC/ARM_CM4F/portmacro.h **** 		xReturn = pdFALSE;
 180:Middlewares/Third_Party/FreeRTOS/Source/portable/GCC/ARM_CM4F/portmacro.h **** 	}
 181:Middlewares/Third_Party/FreeRTOS/Source/portable/GCC/ARM_CM4F/portmacro.h **** 	else
 182:Middlewares/Third_Party/FreeRTOS/Source/portable/GCC/ARM_CM4F/portmacro.h **** 	{
 183:Middlewares/Third_Party/FreeRTOS/Source/portable/GCC/ARM_CM4F/portmacro.h **** 		xReturn = pdTRUE;
 184:Middlewares/Third_Party/FreeRTOS/Source/portable/GCC/ARM_CM4F/portmacro.h **** 	}
 185:Middlewares/Third_Party/FreeRTOS/Source/portable/GCC/ARM_CM4F/portmacro.h **** 
 186:Middlewares/Third_Party/FreeRTOS/Source/portable/GCC/ARM_CM4F/portmacro.h **** 	return xReturn;
 187:Middlewares/Third_Party/FreeRTOS/Source/portable/GCC/ARM_CM4F/portmacro.h **** }
 188:Middlewares/Third_Party/FreeRTOS/Source/portable/GCC/ARM_CM4F/portmacro.h **** 
 189:Middlewares/Third_Party/FreeRTOS/Source/portable/GCC/ARM_CM4F/portmacro.h **** /*-----------------------------------------------------------*/
 190:Middlewares/Third_Party/FreeRTOS/Source/portable/GCC/ARM_CM4F/portmacro.h **** 
 191:Middlewares/Third_Party/FreeRTOS/Source/portable/GCC/ARM_CM4F/portmacro.h **** portFORCE_INLINE static void vPortRaiseBASEPRI( void )
  65              		.loc 2 191 30 view .LVU11
  66              	.LBB72:
 192:Middlewares/Third_Party/FreeRTOS/Source/portable/GCC/ARM_CM4F/portmacro.h **** {
 193:Middlewares/Third_Party/FreeRTOS/Source/portable/GCC/ARM_CM4F/portmacro.h **** uint32_t ulNewBASEPRI;
  67              		.loc 2 193 1 view .LVU12
 194:Middlewares/Third_Party/FreeRTOS/Source/portable/GCC/ARM_CM4F/portmacro.h **** 
 195:Middlewares/Third_Party/FreeRTOS/Source/portable/GCC/ARM_CM4F/portmacro.h **** 	__asm volatile
  68              		.loc 2 195 2 view .LVU13
  69              		.syntax unified
  70              	@ 195 "Middlewares/Third_Party/FreeRTOS/Source/portable/GCC/ARM_CM4F/portmacro.h" 1
  71 000c 4FF05003 			mov r3, #80												
  72 0010 83F31188 		msr basepri, r3											
  73 0014 BFF36F8F 		isb														
  74 0018 BFF34F8F 		dsb														
  75              	
  76              	@ 0 "" 2
  77              	.LVL1:
  78              		.thumb
  79              		.syntax unified
  80              	.L5:
  81              		.loc 2 195 2 is_stmt 0 view .LVU14
  82              	.LBE72:
  83              	.LBE71:
 469:Middlewares/Third_Party/FreeRTOS/Source/event_groups.c **** 
  84              		.loc 1 469 2 is_stmt 1 view .LVU15
 469:Middlewares/Third_Party/FreeRTOS/Source/event_groups.c **** 
  85              		.loc 1 469 2 view .LVU16
 469:Middlewares/Third_Party/FreeRTOS/Source/event_groups.c **** 
  86              		.loc 1 469 2 view .LVU17
 469:Middlewares/Third_Party/FreeRTOS/Source/event_groups.c **** 
  87              		.loc 1 469 2 view .LVU18
  88 001c FEE7     		b	.L5
  89              	.L4:
  90 001e 0546     		mov	r5, r0
  91              	.LVL2:
  92              	.LBB73:
  93              	.LBI73:
 461:Middlewares/Third_Party/FreeRTOS/Source/event_groups.c **** {
  94              		.loc 1 461 13 view .LVU19
ARM GAS  C:\Users\Simon\AppData\Local\Temp\cckaAEQd.s 			page 18


  95              	.LBB74:
 469:Middlewares/Third_Party/FreeRTOS/Source/event_groups.c **** 
  96              		.loc 1 469 72 view .LVU20
 471:Middlewares/Third_Party/FreeRTOS/Source/event_groups.c **** 	{
  97              		.loc 1 471 2 view .LVU21
  98 0020 FFF7FEFF 		bl	vPortEnterCritical
  99              	.LVL3:
 473:Middlewares/Third_Party/FreeRTOS/Source/event_groups.c **** 
 100              		.loc 1 473 60 view .LVU22
 477:Middlewares/Third_Party/FreeRTOS/Source/event_groups.c **** 
 101              		.loc 1 477 3 view .LVU23
 480:Middlewares/Third_Party/FreeRTOS/Source/event_groups.c **** 	}
 102              		.loc 1 480 3 view .LVU24
 480:Middlewares/Third_Party/FreeRTOS/Source/event_groups.c **** 	}
 103              		.loc 1 480 28 is_stmt 0 view .LVU25
 104 0024 2B68     		ldr	r3, [r5]
 105 0026 23EA0403 		bic	r3, r3, r4
 106 002a 2B60     		str	r3, [r5]
 107              	.LVL4:
 482:Middlewares/Third_Party/FreeRTOS/Source/event_groups.c **** 
 108              		.loc 1 482 2 is_stmt 1 view .LVU26
 109              	.LBE74:
 110              	.LBE73:
 111              	.LBE79:
 112              	.LBE81:
 668:Middlewares/Third_Party/FreeRTOS/Source/event_groups.c **** }
 113              		.loc 1 668 1 is_stmt 0 view .LVU27
 114 002c BDE83840 		pop	{r3, r4, r5, lr}
 115              	.LCFI1:
 116              		.cfi_remember_state
 117              		.cfi_restore 14
 118              		.cfi_restore 5
 119              		.cfi_restore 4
 120              		.cfi_restore 3
 121              		.cfi_def_cfa_offset 0
 122              	.LVL5:
 123              	.LBB82:
 124              	.LBB80:
 125              	.LBB76:
 126              	.LBB75:
 482:Middlewares/Third_Party/FreeRTOS/Source/event_groups.c **** 
 127              		.loc 1 482 2 view .LVU28
 128 0030 FFF7FEBF 		b	vPortExitCritical
 129              	.LVL6:
 130              	.L8:
 131              	.LCFI2:
 132              		.cfi_restore_state
 482:Middlewares/Third_Party/FreeRTOS/Source/event_groups.c **** 
 133              		.loc 1 482 2 view .LVU29
 134              	.LBE75:
 135              	.LBE76:
 468:Middlewares/Third_Party/FreeRTOS/Source/event_groups.c **** 	configASSERT( ( uxBitsToClear & eventEVENT_BITS_CONTROL_BYTES ) == 0 );
 136              		.loc 1 468 2 is_stmt 1 view .LVU30
 137              	.LBB77:
 138              	.LBI77:
 191:Middlewares/Third_Party/FreeRTOS/Source/portable/GCC/ARM_CM4F/portmacro.h **** {
 139              		.loc 2 191 30 view .LVU31
ARM GAS  C:\Users\Simon\AppData\Local\Temp\cckaAEQd.s 			page 19


 140              	.LBB78:
 193:Middlewares/Third_Party/FreeRTOS/Source/portable/GCC/ARM_CM4F/portmacro.h **** 
 141              		.loc 2 193 1 view .LVU32
 142              		.loc 2 195 2 view .LVU33
 143              		.syntax unified
 144              	@ 195 "Middlewares/Third_Party/FreeRTOS/Source/portable/GCC/ARM_CM4F/portmacro.h" 1
 145 0034 4FF05003 			mov r3, #80												
 146 0038 83F31188 		msr basepri, r3											
 147 003c BFF36F8F 		isb														
 148 0040 BFF34F8F 		dsb														
 149              	
 150              	@ 0 "" 2
 151              	.LVL7:
 152              		.thumb
 153              		.syntax unified
 154              	.L3:
 155              		.loc 2 195 2 is_stmt 0 view .LVU34
 156              	.LBE78:
 157              	.LBE77:
 468:Middlewares/Third_Party/FreeRTOS/Source/event_groups.c **** 	configASSERT( ( uxBitsToClear & eventEVENT_BITS_CONTROL_BYTES ) == 0 );
 158              		.loc 1 468 2 is_stmt 1 view .LVU35
 468:Middlewares/Third_Party/FreeRTOS/Source/event_groups.c **** 	configASSERT( ( uxBitsToClear & eventEVENT_BITS_CONTROL_BYTES ) == 0 );
 159              		.loc 1 468 2 view .LVU36
 468:Middlewares/Third_Party/FreeRTOS/Source/event_groups.c **** 	configASSERT( ( uxBitsToClear & eventEVENT_BITS_CONTROL_BYTES ) == 0 );
 160              		.loc 1 468 2 view .LVU37
 468:Middlewares/Third_Party/FreeRTOS/Source/event_groups.c **** 	configASSERT( ( uxBitsToClear & eventEVENT_BITS_CONTROL_BYTES ) == 0 );
 161              		.loc 1 468 2 view .LVU38
 162 0044 FEE7     		b	.L3
 163              	.LBE80:
 164              	.LBE82:
 165              		.cfi_endproc
 166              	.LFE14:
 168 0046 00BF     		.section	.text.xEventGroupCreateStatic,"ax",%progbits
 169              		.align	1
 170              		.p2align 2,,3
 171              		.global	xEventGroupCreateStatic
 172              		.syntax unified
 173              		.thumb
 174              		.thumb_func
 176              	xEventGroupCreateStatic:
 177              	.LVL8:
 178              	.LFB4:
  94:Middlewares/Third_Party/FreeRTOS/Source/event_groups.c **** 	EventGroup_t *pxEventBits;
 179              		.loc 1 94 2 view -0
 180              		.cfi_startproc
 181              		@ args = 0, pretend = 0, frame = 8
 182              		@ frame_needed = 0, uses_anonymous_args = 0
  95:Middlewares/Third_Party/FreeRTOS/Source/event_groups.c **** 
 183              		.loc 1 95 2 view .LVU40
  98:Middlewares/Third_Party/FreeRTOS/Source/event_groups.c **** 
 184              		.loc 1 98 3 view .LVU41
 185 0000 78B1     		cbz	r0, .L16
  98:Middlewares/Third_Party/FreeRTOS/Source/event_groups.c **** 
 186              		.loc 1 98 37 discriminator 2 view .LVU42
 187              	.LBB83:
 105:Middlewares/Third_Party/FreeRTOS/Source/event_groups.c **** 			configASSERT( xSize == sizeof( EventGroup_t ) );
 188              		.loc 1 105 4 discriminator 2 view .LVU43
ARM GAS  C:\Users\Simon\AppData\Local\Temp\cckaAEQd.s 			page 20


 105:Middlewares/Third_Party/FreeRTOS/Source/event_groups.c **** 			configASSERT( xSize == sizeof( EventGroup_t ) );
 189              		.loc 1 105 20 is_stmt 0 discriminator 2 view .LVU44
 190 0002 2023     		movs	r3, #32
 191              	.LBE83:
  94:Middlewares/Third_Party/FreeRTOS/Source/event_groups.c **** 	EventGroup_t *pxEventBits;
 192              		.loc 1 94 2 discriminator 2 view .LVU45
 193 0004 10B5     		push	{r4, lr}
 194              	.LCFI3:
 195              		.cfi_def_cfa_offset 8
 196              		.cfi_offset 4, -8
 197              		.cfi_offset 14, -4
 198 0006 82B0     		sub	sp, sp, #8
 199              	.LCFI4:
 200              		.cfi_def_cfa_offset 16
 201              	.LBB86:
 105:Middlewares/Third_Party/FreeRTOS/Source/event_groups.c **** 			configASSERT( xSize == sizeof( EventGroup_t ) );
 202              		.loc 1 105 20 discriminator 2 view .LVU46
 203 0008 0193     		str	r3, [sp, #4]
 106:Middlewares/Third_Party/FreeRTOS/Source/event_groups.c **** 		} /*lint !e529 xSize is referenced if configASSERT() is defined. */
 204              		.loc 1 106 4 is_stmt 1 discriminator 2 view .LVU47
 205 000a 019B     		ldr	r3, [sp, #4]
 206 000c 202B     		cmp	r3, #32
 207 000e 11D0     		beq	.L12
 106:Middlewares/Third_Party/FreeRTOS/Source/event_groups.c **** 		} /*lint !e529 xSize is referenced if configASSERT() is defined. */
 208              		.loc 1 106 4 view .LVU48
 209              	.LBB84:
 210              	.LBI84:
 191:Middlewares/Third_Party/FreeRTOS/Source/portable/GCC/ARM_CM4F/portmacro.h **** {
 211              		.loc 2 191 30 view .LVU49
 212              	.LBB85:
 193:Middlewares/Third_Party/FreeRTOS/Source/portable/GCC/ARM_CM4F/portmacro.h **** 
 213              		.loc 2 193 1 view .LVU50
 214              		.loc 2 195 2 view .LVU51
 215              		.syntax unified
 216              	@ 195 "Middlewares/Third_Party/FreeRTOS/Source/portable/GCC/ARM_CM4F/portmacro.h" 1
 217 0010 4FF05003 			mov r3, #80												
 218 0014 83F31188 		msr basepri, r3											
 219 0018 BFF36F8F 		isb														
 220 001c BFF34F8F 		dsb														
 221              	
 222              	@ 0 "" 2
 223              	.LVL9:
 224              		.thumb
 225              		.syntax unified
 226              	.L13:
 227              		.loc 2 195 2 is_stmt 0 view .LVU52
 228              	.LBE85:
 229              	.LBE84:
 106:Middlewares/Third_Party/FreeRTOS/Source/event_groups.c **** 		} /*lint !e529 xSize is referenced if configASSERT() is defined. */
 230              		.loc 1 106 4 is_stmt 1 discriminator 2 view .LVU53
 106:Middlewares/Third_Party/FreeRTOS/Source/event_groups.c **** 		} /*lint !e529 xSize is referenced if configASSERT() is defined. */
 231              		.loc 1 106 4 discriminator 2 view .LVU54
 106:Middlewares/Third_Party/FreeRTOS/Source/event_groups.c **** 		} /*lint !e529 xSize is referenced if configASSERT() is defined. */
 232              		.loc 1 106 4 discriminator 2 view .LVU55
 106:Middlewares/Third_Party/FreeRTOS/Source/event_groups.c **** 		} /*lint !e529 xSize is referenced if configASSERT() is defined. */
 233              		.loc 1 106 4 discriminator 2 view .LVU56
 234 0020 FEE7     		b	.L13
ARM GAS  C:\Users\Simon\AppData\Local\Temp\cckaAEQd.s 			page 21


 235              	.L16:
 236              	.LCFI5:
 237              		.cfi_def_cfa_offset 0
 238              		.cfi_restore 4
 239              		.cfi_restore 14
 240              	.LBE86:
  98:Middlewares/Third_Party/FreeRTOS/Source/event_groups.c **** 
 241              		.loc 1 98 3 view .LVU57
 242              	.LBB87:
 243              	.LBI87:
 191:Middlewares/Third_Party/FreeRTOS/Source/portable/GCC/ARM_CM4F/portmacro.h **** {
 244              		.loc 2 191 30 view .LVU58
 245              	.LBB88:
 193:Middlewares/Third_Party/FreeRTOS/Source/portable/GCC/ARM_CM4F/portmacro.h **** 
 246              		.loc 2 193 1 view .LVU59
 247              		.loc 2 195 2 view .LVU60
 248              		.syntax unified
 249              	@ 195 "Middlewares/Third_Party/FreeRTOS/Source/portable/GCC/ARM_CM4F/portmacro.h" 1
 250 0022 4FF05003 			mov r3, #80												
 251 0026 83F31188 		msr basepri, r3											
 252 002a BFF36F8F 		isb														
 253 002e BFF34F8F 		dsb														
 254              	
 255              	@ 0 "" 2
 256              	.LVL10:
 257              		.thumb
 258              		.syntax unified
 259              	.L11:
 260              		.loc 2 195 2 is_stmt 0 view .LVU61
 261              	.LBE88:
 262              	.LBE87:
  98:Middlewares/Third_Party/FreeRTOS/Source/event_groups.c **** 
 263              		.loc 1 98 3 is_stmt 1 discriminator 1 view .LVU62
  98:Middlewares/Third_Party/FreeRTOS/Source/event_groups.c **** 
 264              		.loc 1 98 3 discriminator 1 view .LVU63
  98:Middlewares/Third_Party/FreeRTOS/Source/event_groups.c **** 
 265              		.loc 1 98 3 discriminator 1 view .LVU64
  98:Middlewares/Third_Party/FreeRTOS/Source/event_groups.c **** 
 266              		.loc 1 98 3 discriminator 1 view .LVU65
 267 0032 FEE7     		b	.L11
 268              	.L12:
 269              	.LCFI6:
 270              		.cfi_def_cfa_offset 16
 271              		.cfi_offset 4, -8
 272              		.cfi_offset 14, -4
 115:Middlewares/Third_Party/FreeRTOS/Source/event_groups.c **** 			vListInitialise( &( pxEventBits->xTasksWaitingForBits ) );
 273              		.loc 1 115 29 is_stmt 0 view .LVU66
 274 0034 0023     		movs	r3, #0
 275 0036 0446     		mov	r4, r0
 276              	.LBB89:
 106:Middlewares/Third_Party/FreeRTOS/Source/event_groups.c **** 		} /*lint !e529 xSize is referenced if configASSERT() is defined. */
 277              		.loc 1 106 51 is_stmt 1 view .LVU67
 278              	.LBE89:
 111:Middlewares/Third_Party/FreeRTOS/Source/event_groups.c **** 
 279              		.loc 1 111 3 view .LVU68
 280              	.LVL11:
 113:Middlewares/Third_Party/FreeRTOS/Source/event_groups.c **** 		{
ARM GAS  C:\Users\Simon\AppData\Local\Temp\cckaAEQd.s 			page 22


 281              		.loc 1 113 3 view .LVU69
 115:Middlewares/Third_Party/FreeRTOS/Source/event_groups.c **** 			vListInitialise( &( pxEventBits->xTasksWaitingForBits ) );
 282              		.loc 1 115 4 view .LVU70
 115:Middlewares/Third_Party/FreeRTOS/Source/event_groups.c **** 			vListInitialise( &( pxEventBits->xTasksWaitingForBits ) );
 283              		.loc 1 115 29 is_stmt 0 view .LVU71
 284 0038 40F8043B 		str	r3, [r0], #4
 285              	.LVL12:
 116:Middlewares/Third_Party/FreeRTOS/Source/event_groups.c **** 
 286              		.loc 1 116 4 is_stmt 1 view .LVU72
 287 003c FFF7FEFF 		bl	vListInitialise
 288              	.LVL13:
 123:Middlewares/Third_Party/FreeRTOS/Source/event_groups.c **** 			}
 289              		.loc 1 123 5 view .LVU73
 123:Middlewares/Third_Party/FreeRTOS/Source/event_groups.c **** 			}
 290              		.loc 1 123 40 is_stmt 0 view .LVU74
 291 0040 0123     		movs	r3, #1
 138:Middlewares/Third_Party/FreeRTOS/Source/event_groups.c **** 
 292              		.loc 1 138 2 view .LVU75
 293 0042 2046     		mov	r0, r4
 123:Middlewares/Third_Party/FreeRTOS/Source/event_groups.c **** 			}
 294              		.loc 1 123 40 view .LVU76
 295 0044 2377     		strb	r3, [r4, #28]
 127:Middlewares/Third_Party/FreeRTOS/Source/event_groups.c **** 		}
 296              		.loc 1 127 42 is_stmt 1 view .LVU77
 134:Middlewares/Third_Party/FreeRTOS/Source/event_groups.c **** 		}
 297              		.loc 1 134 36 view .LVU78
 137:Middlewares/Third_Party/FreeRTOS/Source/event_groups.c **** 	}
 298              		.loc 1 137 3 view .LVU79
 138:Middlewares/Third_Party/FreeRTOS/Source/event_groups.c **** 
 299              		.loc 1 138 2 is_stmt 0 view .LVU80
 300 0046 02B0     		add	sp, sp, #8
 301              	.LCFI7:
 302              		.cfi_def_cfa_offset 8
 303              		@ sp needed
 304 0048 10BD     		pop	{r4, pc}
 138:Middlewares/Third_Party/FreeRTOS/Source/event_groups.c **** 
 305              		.loc 1 138 2 view .LVU81
 306              		.cfi_endproc
 307              	.LFE4:
 309 004a 00BF     		.section	.text.xEventGroupCreate,"ax",%progbits
 310              		.align	1
 311              		.p2align 2,,3
 312              		.global	xEventGroupCreate
 313              		.syntax unified
 314              		.thumb
 315              		.thumb_func
 317              	xEventGroupCreate:
 318              	.LFB5:
 146:Middlewares/Third_Party/FreeRTOS/Source/event_groups.c **** 	EventGroup_t *pxEventBits;
 319              		.loc 1 146 2 is_stmt 1 view -0
 320              		.cfi_startproc
 321              		@ args = 0, pretend = 0, frame = 0
 322              		@ frame_needed = 0, uses_anonymous_args = 0
 147:Middlewares/Third_Party/FreeRTOS/Source/event_groups.c **** 
 323              		.loc 1 147 2 view .LVU83
 162:Middlewares/Third_Party/FreeRTOS/Source/event_groups.c **** 
 324              		.loc 1 162 3 view .LVU84
ARM GAS  C:\Users\Simon\AppData\Local\Temp\cckaAEQd.s 			page 23


 146:Middlewares/Third_Party/FreeRTOS/Source/event_groups.c **** 	EventGroup_t *pxEventBits;
 325              		.loc 1 146 2 is_stmt 0 view .LVU85
 326 0000 38B5     		push	{r3, r4, r5, lr}
 327              	.LCFI8:
 328              		.cfi_def_cfa_offset 16
 329              		.cfi_offset 3, -16
 330              		.cfi_offset 4, -12
 331              		.cfi_offset 5, -8
 332              		.cfi_offset 14, -4
 162:Middlewares/Third_Party/FreeRTOS/Source/event_groups.c **** 
 333              		.loc 1 162 36 view .LVU86
 334 0002 2020     		movs	r0, #32
 335 0004 FFF7FEFF 		bl	pvPortMalloc
 336              	.LVL14:
 164:Middlewares/Third_Party/FreeRTOS/Source/event_groups.c **** 		{
 337              		.loc 1 164 3 is_stmt 1 view .LVU87
 164:Middlewares/Third_Party/FreeRTOS/Source/event_groups.c **** 		{
 338              		.loc 1 164 5 is_stmt 0 view .LVU88
 339 0008 0446     		mov	r4, r0
 340 000a 28B1     		cbz	r0, .L17
 166:Middlewares/Third_Party/FreeRTOS/Source/event_groups.c **** 			vListInitialise( &( pxEventBits->xTasksWaitingForBits ) );
 341              		.loc 1 166 4 is_stmt 1 view .LVU89
 166:Middlewares/Third_Party/FreeRTOS/Source/event_groups.c **** 			vListInitialise( &( pxEventBits->xTasksWaitingForBits ) );
 342              		.loc 1 166 29 is_stmt 0 view .LVU90
 343 000c 0025     		movs	r5, #0
 344 000e 40F8045B 		str	r5, [r0], #4
 345              	.LVL15:
 167:Middlewares/Third_Party/FreeRTOS/Source/event_groups.c **** 
 346              		.loc 1 167 4 is_stmt 1 view .LVU91
 347 0012 FFF7FEFF 		bl	vListInitialise
 348              	.LVL16:
 174:Middlewares/Third_Party/FreeRTOS/Source/event_groups.c **** 			}
 349              		.loc 1 174 5 view .LVU92
 174:Middlewares/Third_Party/FreeRTOS/Source/event_groups.c **** 			}
 350              		.loc 1 174 40 is_stmt 0 view .LVU93
 351 0016 2577     		strb	r5, [r4, #28]
 178:Middlewares/Third_Party/FreeRTOS/Source/event_groups.c **** 		}
 352              		.loc 1 178 42 is_stmt 1 view .LVU94
 182:Middlewares/Third_Party/FreeRTOS/Source/event_groups.c **** 		}
 353              		.loc 1 182 36 view .LVU95
 185:Middlewares/Third_Party/FreeRTOS/Source/event_groups.c **** 	}
 354              		.loc 1 185 3 view .LVU96
 355              	.L17:
 186:Middlewares/Third_Party/FreeRTOS/Source/event_groups.c **** 
 356              		.loc 1 186 2 is_stmt 0 view .LVU97
 357 0018 2046     		mov	r0, r4
 358 001a 38BD     		pop	{r3, r4, r5, pc}
 186:Middlewares/Third_Party/FreeRTOS/Source/event_groups.c **** 
 359              		.loc 1 186 2 view .LVU98
 360              		.cfi_endproc
 361              	.LFE5:
 363              		.section	.text.xEventGroupWaitBits,"ax",%progbits
 364              		.align	1
 365              		.p2align 2,,3
 366              		.global	xEventGroupWaitBits
 367              		.syntax unified
 368              		.thumb
ARM GAS  C:\Users\Simon\AppData\Local\Temp\cckaAEQd.s 			page 24


 369              		.thumb_func
 371              	xEventGroupWaitBits:
 372              	.LVL17:
 373              	.LFB7:
 312:Middlewares/Third_Party/FreeRTOS/Source/event_groups.c **** EventGroup_t *pxEventBits = xEventGroup;
 374              		.loc 1 312 1 is_stmt 1 view -0
 375              		.cfi_startproc
 376              		@ args = 4, pretend = 0, frame = 0
 377              		@ frame_needed = 0, uses_anonymous_args = 0
 313:Middlewares/Third_Party/FreeRTOS/Source/event_groups.c **** EventBits_t uxReturn, uxControlBits = 0;
 378              		.loc 1 313 1 view .LVU100
 314:Middlewares/Third_Party/FreeRTOS/Source/event_groups.c **** BaseType_t xWaitConditionMet, xAlreadyYielded;
 379              		.loc 1 314 1 view .LVU101
 315:Middlewares/Third_Party/FreeRTOS/Source/event_groups.c **** BaseType_t xTimeoutOccurred = pdFALSE;
 380              		.loc 1 315 1 view .LVU102
 316:Middlewares/Third_Party/FreeRTOS/Source/event_groups.c **** 
 381              		.loc 1 316 1 view .LVU103
 320:Middlewares/Third_Party/FreeRTOS/Source/event_groups.c **** 	configASSERT( ( uxBitsToWaitFor & eventEVENT_BITS_CONTROL_BYTES ) == 0 );
 382              		.loc 1 320 2 view .LVU104
 383 0000 C0B1     		cbz	r0, .L62
 320:Middlewares/Third_Party/FreeRTOS/Source/event_groups.c **** 	configASSERT( ( uxBitsToWaitFor & eventEVENT_BITS_CONTROL_BYTES ) == 0 );
 384              		.loc 1 320 29 discriminator 2 view .LVU105
 321:Middlewares/Third_Party/FreeRTOS/Source/event_groups.c **** 	configASSERT( uxBitsToWaitFor != 0 );
 385              		.loc 1 321 2 discriminator 2 view .LVU106
 386 0002 11F07F4F 		tst	r1, #-16777216
 312:Middlewares/Third_Party/FreeRTOS/Source/event_groups.c **** EventGroup_t *pxEventBits = xEventGroup;
 387              		.loc 1 312 1 is_stmt 0 discriminator 2 view .LVU107
 388 0006 2DE9F041 		push	{r4, r5, r6, r7, r8, lr}
 389              	.LCFI9:
 390              		.cfi_def_cfa_offset 24
 391              		.cfi_offset 4, -24
 392              		.cfi_offset 5, -20
 393              		.cfi_offset 6, -16
 394              		.cfi_offset 7, -12
 395              		.cfi_offset 8, -8
 396              		.cfi_offset 14, -4
 397 000a 0C46     		mov	r4, r1
 321:Middlewares/Third_Party/FreeRTOS/Source/event_groups.c **** 	configASSERT( uxBitsToWaitFor != 0 );
 398              		.loc 1 321 2 discriminator 2 view .LVU108
 399 000c 09D1     		bne	.L63
 321:Middlewares/Third_Party/FreeRTOS/Source/event_groups.c **** 	configASSERT( uxBitsToWaitFor != 0 );
 400              		.loc 1 321 74 is_stmt 1 discriminator 2 view .LVU109
 322:Middlewares/Third_Party/FreeRTOS/Source/event_groups.c **** 	#if ( ( INCLUDE_xTaskGetSchedulerState == 1 ) || ( configUSE_TIMERS == 1 ) )
 401              		.loc 1 322 2 discriminator 2 view .LVU110
 402 000e D1B9     		cbnz	r1, .L28
 322:Middlewares/Third_Party/FreeRTOS/Source/event_groups.c **** 	#if ( ( INCLUDE_xTaskGetSchedulerState == 1 ) || ( configUSE_TIMERS == 1 ) )
 403              		.loc 1 322 2 view .LVU111
 404              	.LBB90:
 405              	.LBI90:
 191:Middlewares/Third_Party/FreeRTOS/Source/portable/GCC/ARM_CM4F/portmacro.h **** {
 406              		.loc 2 191 30 view .LVU112
 407              	.LBB91:
 193:Middlewares/Third_Party/FreeRTOS/Source/portable/GCC/ARM_CM4F/portmacro.h **** 
 408              		.loc 2 193 1 view .LVU113
 409              		.loc 2 195 2 view .LVU114
 410              		.syntax unified
 411              	@ 195 "Middlewares/Third_Party/FreeRTOS/Source/portable/GCC/ARM_CM4F/portmacro.h" 1
ARM GAS  C:\Users\Simon\AppData\Local\Temp\cckaAEQd.s 			page 25


 412 0010 4FF05003 			mov r3, #80												
 413 0014 83F31188 		msr basepri, r3											
 414 0018 BFF36F8F 		isb														
 415 001c BFF34F8F 		dsb														
 416              	
 417              	@ 0 "" 2
 418              	.LVL18:
 419              		.thumb
 420              		.syntax unified
 421              	.L29:
 422              		.loc 2 195 2 is_stmt 0 view .LVU115
 423              	.LBE91:
 424              	.LBE90:
 322:Middlewares/Third_Party/FreeRTOS/Source/event_groups.c **** 	#if ( ( INCLUDE_xTaskGetSchedulerState == 1 ) || ( configUSE_TIMERS == 1 ) )
 425              		.loc 1 322 2 is_stmt 1 discriminator 3 view .LVU116
 322:Middlewares/Third_Party/FreeRTOS/Source/event_groups.c **** 	#if ( ( INCLUDE_xTaskGetSchedulerState == 1 ) || ( configUSE_TIMERS == 1 ) )
 426              		.loc 1 322 2 discriminator 3 view .LVU117
 322:Middlewares/Third_Party/FreeRTOS/Source/event_groups.c **** 	#if ( ( INCLUDE_xTaskGetSchedulerState == 1 ) || ( configUSE_TIMERS == 1 ) )
 427              		.loc 1 322 2 discriminator 3 view .LVU118
 322:Middlewares/Third_Party/FreeRTOS/Source/event_groups.c **** 	#if ( ( INCLUDE_xTaskGetSchedulerState == 1 ) || ( configUSE_TIMERS == 1 ) )
 428              		.loc 1 322 2 discriminator 3 view .LVU119
 429 0020 FEE7     		b	.L29
 430              	.LVL19:
 431              	.L63:
 321:Middlewares/Third_Party/FreeRTOS/Source/event_groups.c **** 	configASSERT( uxBitsToWaitFor != 0 );
 432              		.loc 1 321 2 view .LVU120
 433              	.LBB92:
 434              	.LBI92:
 191:Middlewares/Third_Party/FreeRTOS/Source/portable/GCC/ARM_CM4F/portmacro.h **** {
 435              		.loc 2 191 30 view .LVU121
 436              	.LBB93:
 193:Middlewares/Third_Party/FreeRTOS/Source/portable/GCC/ARM_CM4F/portmacro.h **** 
 437              		.loc 2 193 1 view .LVU122
 438              		.loc 2 195 2 view .LVU123
 439              		.syntax unified
 440              	@ 195 "Middlewares/Third_Party/FreeRTOS/Source/portable/GCC/ARM_CM4F/portmacro.h" 1
 441 0022 4FF05003 			mov r3, #80												
 442 0026 83F31188 		msr basepri, r3											
 443 002a BFF36F8F 		isb														
 444 002e BFF34F8F 		dsb														
 445              	
 446              	@ 0 "" 2
 447              	.LVL20:
 448              		.thumb
 449              		.syntax unified
 450              	.L27:
 451              		.loc 2 195 2 is_stmt 0 view .LVU124
 452              	.LBE93:
 453              	.LBE92:
 321:Middlewares/Third_Party/FreeRTOS/Source/event_groups.c **** 	configASSERT( uxBitsToWaitFor != 0 );
 454              		.loc 1 321 2 is_stmt 1 discriminator 2 view .LVU125
 321:Middlewares/Third_Party/FreeRTOS/Source/event_groups.c **** 	configASSERT( uxBitsToWaitFor != 0 );
 455              		.loc 1 321 2 discriminator 2 view .LVU126
 321:Middlewares/Third_Party/FreeRTOS/Source/event_groups.c **** 	configASSERT( uxBitsToWaitFor != 0 );
 456              		.loc 1 321 2 discriminator 2 view .LVU127
 321:Middlewares/Third_Party/FreeRTOS/Source/event_groups.c **** 	configASSERT( uxBitsToWaitFor != 0 );
 457              		.loc 1 321 2 discriminator 2 view .LVU128
ARM GAS  C:\Users\Simon\AppData\Local\Temp\cckaAEQd.s 			page 26


 458 0032 FEE7     		b	.L27
 459              	.LVL21:
 460              	.L62:
 461              	.LCFI10:
 462              		.cfi_def_cfa_offset 0
 463              		.cfi_restore 4
 464              		.cfi_restore 5
 465              		.cfi_restore 6
 466              		.cfi_restore 7
 467              		.cfi_restore 8
 468              		.cfi_restore 14
 320:Middlewares/Third_Party/FreeRTOS/Source/event_groups.c **** 	configASSERT( ( uxBitsToWaitFor & eventEVENT_BITS_CONTROL_BYTES ) == 0 );
 469              		.loc 1 320 2 view .LVU129
 470              	.LBB94:
 471              	.LBI94:
 191:Middlewares/Third_Party/FreeRTOS/Source/portable/GCC/ARM_CM4F/portmacro.h **** {
 472              		.loc 2 191 30 view .LVU130
 473              	.LBB95:
 193:Middlewares/Third_Party/FreeRTOS/Source/portable/GCC/ARM_CM4F/portmacro.h **** 
 474              		.loc 2 193 1 view .LVU131
 475              		.loc 2 195 2 view .LVU132
 476              		.syntax unified
 477              	@ 195 "Middlewares/Third_Party/FreeRTOS/Source/portable/GCC/ARM_CM4F/portmacro.h" 1
 478 0034 4FF05003 			mov r3, #80												
 479 0038 83F31188 		msr basepri, r3											
 480 003c BFF36F8F 		isb														
 481 0040 BFF34F8F 		dsb														
 482              	
 483              	@ 0 "" 2
 484              	.LVL22:
 485              		.thumb
 486              		.syntax unified
 487              	.L25:
 488              		.loc 2 195 2 is_stmt 0 view .LVU133
 489              	.LBE95:
 490              	.LBE94:
 320:Middlewares/Third_Party/FreeRTOS/Source/event_groups.c **** 	configASSERT( ( uxBitsToWaitFor & eventEVENT_BITS_CONTROL_BYTES ) == 0 );
 491              		.loc 1 320 2 is_stmt 1 discriminator 1 view .LVU134
 320:Middlewares/Third_Party/FreeRTOS/Source/event_groups.c **** 	configASSERT( ( uxBitsToWaitFor & eventEVENT_BITS_CONTROL_BYTES ) == 0 );
 492              		.loc 1 320 2 discriminator 1 view .LVU135
 320:Middlewares/Third_Party/FreeRTOS/Source/event_groups.c **** 	configASSERT( ( uxBitsToWaitFor & eventEVENT_BITS_CONTROL_BYTES ) == 0 );
 493              		.loc 1 320 2 discriminator 1 view .LVU136
 320:Middlewares/Third_Party/FreeRTOS/Source/event_groups.c **** 	configASSERT( ( uxBitsToWaitFor & eventEVENT_BITS_CONTROL_BYTES ) == 0 );
 494              		.loc 1 320 2 discriminator 1 view .LVU137
 495 0044 FEE7     		b	.L25
 496              	.LVL23:
 497              	.L28:
 498              	.LCFI11:
 499              		.cfi_def_cfa_offset 24
 500              		.cfi_offset 4, -24
 501              		.cfi_offset 5, -20
 502              		.cfi_offset 6, -16
 503              		.cfi_offset 7, -12
 504              		.cfi_offset 8, -8
 505              		.cfi_offset 14, -4
 322:Middlewares/Third_Party/FreeRTOS/Source/event_groups.c **** 	#if ( ( INCLUDE_xTaskGetSchedulerState == 1 ) || ( configUSE_TIMERS == 1 ) )
 506              		.loc 1 322 38 discriminator 2 view .LVU138
ARM GAS  C:\Users\Simon\AppData\Local\Temp\cckaAEQd.s 			page 27


 325:Middlewares/Third_Party/FreeRTOS/Source/event_groups.c **** 	}
 507              		.loc 1 325 3 discriminator 2 view .LVU139
 508 0046 1646     		mov	r6, r2
 509 0048 1F46     		mov	r7, r3
 510 004a 0546     		mov	r5, r0
 511 004c FFF7FEFF 		bl	xTaskGetSchedulerState
 512              	.LVL24:
 325:Middlewares/Third_Party/FreeRTOS/Source/event_groups.c **** 	}
 513              		.loc 1 325 3 is_stmt 0 discriminator 2 view .LVU140
 514 0050 50B9     		cbnz	r0, .L30
 325:Middlewares/Third_Party/FreeRTOS/Source/event_groups.c **** 	}
 515              		.loc 1 325 3 discriminator 2 view .LVU141
 516 0052 069B     		ldr	r3, [sp, #24]
 517 0054 43B1     		cbz	r3, .L30
 325:Middlewares/Third_Party/FreeRTOS/Source/event_groups.c **** 	}
 518              		.loc 1 325 3 is_stmt 1 view .LVU142
 519              	.LBB96:
 520              	.LBI96:
 191:Middlewares/Third_Party/FreeRTOS/Source/portable/GCC/ARM_CM4F/portmacro.h **** {
 521              		.loc 2 191 30 view .LVU143
 522              	.LBB97:
 193:Middlewares/Third_Party/FreeRTOS/Source/portable/GCC/ARM_CM4F/portmacro.h **** 
 523              		.loc 2 193 1 view .LVU144
 524              		.loc 2 195 2 view .LVU145
 525              		.syntax unified
 526              	@ 195 "Middlewares/Third_Party/FreeRTOS/Source/portable/GCC/ARM_CM4F/portmacro.h" 1
 527 0056 4FF05003 			mov r3, #80												
 528 005a 83F31188 		msr basepri, r3											
 529 005e BFF36F8F 		isb														
 530 0062 BFF34F8F 		dsb														
 531              	
 532              	@ 0 "" 2
 533              	.LVL25:
 534              		.thumb
 535              		.syntax unified
 536              	.L31:
 537              		.loc 2 195 2 is_stmt 0 view .LVU146
 538              	.LBE97:
 539              	.LBE96:
 325:Middlewares/Third_Party/FreeRTOS/Source/event_groups.c **** 	}
 540              		.loc 1 325 3 is_stmt 1 discriminator 4 view .LVU147
 325:Middlewares/Third_Party/FreeRTOS/Source/event_groups.c **** 	}
 541              		.loc 1 325 3 discriminator 4 view .LVU148
 325:Middlewares/Third_Party/FreeRTOS/Source/event_groups.c **** 	}
 542              		.loc 1 325 3 discriminator 4 view .LVU149
 325:Middlewares/Third_Party/FreeRTOS/Source/event_groups.c **** 	}
 543              		.loc 1 325 3 discriminator 4 view .LVU150
 544 0066 FEE7     		b	.L31
 545              	.L30:
 325:Middlewares/Third_Party/FreeRTOS/Source/event_groups.c **** 	}
 546              		.loc 1 325 104 discriminator 8 view .LVU151
 329:Middlewares/Third_Party/FreeRTOS/Source/event_groups.c **** 	{
 547              		.loc 1 329 2 discriminator 8 view .LVU152
 548 0068 FFF7FEFF 		bl	vTaskSuspendAll
 549              	.LVL26:
 550              	.LBB98:
 331:Middlewares/Third_Party/FreeRTOS/Source/event_groups.c **** 
ARM GAS  C:\Users\Simon\AppData\Local\Temp\cckaAEQd.s 			page 28


 551              		.loc 1 331 3 discriminator 8 view .LVU153
 331:Middlewares/Third_Party/FreeRTOS/Source/event_groups.c **** 
 552              		.loc 1 331 21 is_stmt 0 discriminator 8 view .LVU154
 553 006c D5F80080 		ldr	r8, [r5]
 554              	.LVL27:
 334:Middlewares/Third_Party/FreeRTOS/Source/event_groups.c **** 
 555              		.loc 1 334 3 is_stmt 1 discriminator 8 view .LVU155
 556              	.LBB99:
 557              	.LBI99:
 669:Middlewares/Third_Party/FreeRTOS/Source/event_groups.c **** /*-----------------------------------------------------------*/
 670:Middlewares/Third_Party/FreeRTOS/Source/event_groups.c **** 
 671:Middlewares/Third_Party/FreeRTOS/Source/event_groups.c **** static BaseType_t prvTestWaitCondition( const EventBits_t uxCurrentEventBits, const EventBits_t uxB
 558              		.loc 1 671 19 discriminator 8 view .LVU156
 559              	.LBB100:
 672:Middlewares/Third_Party/FreeRTOS/Source/event_groups.c **** {
 673:Middlewares/Third_Party/FreeRTOS/Source/event_groups.c **** BaseType_t xWaitConditionMet = pdFALSE;
 560              		.loc 1 673 1 discriminator 8 view .LVU157
 674:Middlewares/Third_Party/FreeRTOS/Source/event_groups.c **** 
 675:Middlewares/Third_Party/FreeRTOS/Source/event_groups.c **** 	if( xWaitForAllBits == pdFALSE )
 561              		.loc 1 675 2 discriminator 8 view .LVU158
 562              		.loc 1 675 4 is_stmt 0 discriminator 8 view .LVU159
 563 0070 1FBB     		cbnz	r7, .L32
 676:Middlewares/Third_Party/FreeRTOS/Source/event_groups.c **** 	{
 677:Middlewares/Third_Party/FreeRTOS/Source/event_groups.c **** 		/* Task only has to wait for one bit within uxBitsToWaitFor to be
 678:Middlewares/Third_Party/FreeRTOS/Source/event_groups.c **** 		set.  Is one already set? */
 679:Middlewares/Third_Party/FreeRTOS/Source/event_groups.c **** 		if( ( uxCurrentEventBits & uxBitsToWaitFor ) != ( EventBits_t ) 0 )
 564              		.loc 1 679 3 is_stmt 1 view .LVU160
 565              		.loc 1 679 5 is_stmt 0 view .LVU161
 566 0072 14EA080F 		tst	r4, r8
 567 0076 2AD1     		bne	.L33
 568              	.LVL28:
 569              		.loc 1 679 5 view .LVU162
 570              	.LBE100:
 571              	.LBE99:
 353:Middlewares/Third_Party/FreeRTOS/Source/event_groups.c **** 		{
 572              		.loc 1 353 8 is_stmt 1 view .LVU163
 353:Middlewares/Third_Party/FreeRTOS/Source/event_groups.c **** 		{
 573              		.loc 1 353 10 is_stmt 0 view .LVU164
 574 0078 069B     		ldr	r3, [sp, #24]
 575 007a 1BB3     		cbz	r3, .L45
 366:Middlewares/Third_Party/FreeRTOS/Source/event_groups.c **** 			{
 576              		.loc 1 366 4 is_stmt 1 view .LVU165
 366:Middlewares/Third_Party/FreeRTOS/Source/event_groups.c **** 			{
 577              		.loc 1 366 6 is_stmt 0 view .LVU166
 578 007c 003E     		subs	r6, r6, #0
 366:Middlewares/Third_Party/FreeRTOS/Source/event_groups.c **** 			{
 579              		.loc 1 366 6 view .LVU167
 580 007e 18BF     		it	ne
 581 0080 0126     		movne	r6, #1
 582              	.LVL29:
 366:Middlewares/Third_Party/FreeRTOS/Source/event_groups.c **** 			{
 583              		.loc 1 366 6 view .LVU168
 584 0082 3106     		lsls	r1, r6, #24
 585              	.LVL30:
 372:Middlewares/Third_Party/FreeRTOS/Source/event_groups.c **** 			}
 586              		.loc 1 372 29 is_stmt 1 view .LVU169
 375:Middlewares/Third_Party/FreeRTOS/Source/event_groups.c **** 			{
ARM GAS  C:\Users\Simon\AppData\Local\Temp\cckaAEQd.s 			page 29


 587              		.loc 1 375 4 view .LVU170
 588              	.L44:
 381:Middlewares/Third_Party/FreeRTOS/Source/event_groups.c **** 			}
 589              		.loc 1 381 29 view .LVU171
 387:Middlewares/Third_Party/FreeRTOS/Source/event_groups.c **** 
 590              		.loc 1 387 4 view .LVU172
 591 0084 2143     		orrs	r1, r1, r4
 592              	.LVL31:
 387:Middlewares/Third_Party/FreeRTOS/Source/event_groups.c **** 
 593              		.loc 1 387 4 is_stmt 0 view .LVU173
 594 0086 069A     		ldr	r2, [sp, #24]
 595 0088 281D     		adds	r0, r5, #4
 596 008a FFF7FEFF 		bl	vTaskPlaceOnUnorderedEventList
 597              	.LVL32:
 392:Middlewares/Third_Party/FreeRTOS/Source/event_groups.c **** 
 598              		.loc 1 392 4 is_stmt 1 view .LVU174
 394:Middlewares/Third_Party/FreeRTOS/Source/event_groups.c **** 		}
 599              		.loc 1 394 68 view .LVU175
 600              	.LBE98:
 397:Middlewares/Third_Party/FreeRTOS/Source/event_groups.c **** 
 601              		.loc 1 397 2 view .LVU176
 397:Middlewares/Third_Party/FreeRTOS/Source/event_groups.c **** 
 602              		.loc 1 397 20 is_stmt 0 view .LVU177
 603 008e FFF7FEFF 		bl	xTaskResumeAll
 604              	.LVL33:
 399:Middlewares/Third_Party/FreeRTOS/Source/event_groups.c **** 	{
 605              		.loc 1 399 2 is_stmt 1 view .LVU178
 401:Middlewares/Third_Party/FreeRTOS/Source/event_groups.c **** 		{
 606              		.loc 1 401 3 view .LVU179
 401:Middlewares/Third_Party/FreeRTOS/Source/event_groups.c **** 		{
 607              		.loc 1 401 5 is_stmt 0 view .LVU180
 608 0092 48B9     		cbnz	r0, .L43
 403:Middlewares/Third_Party/FreeRTOS/Source/event_groups.c **** 		}
 609              		.loc 1 403 4 is_stmt 1 view .LVU181
 610 0094 4FF0E023 		mov	r3, #-536813568
 611 0098 4FF08052 		mov	r2, #268435456
 612 009c C3F8042D 		str	r2, [r3, #3332]
 613              	.LVL34:
 403:Middlewares/Third_Party/FreeRTOS/Source/event_groups.c **** 		}
 614              		.loc 1 403 4 view .LVU182
 615              		.syntax unified
 616              	@ 403 "Middlewares/Third_Party/FreeRTOS/Source/event_groups.c" 1
 617 00a0 BFF34F8F 		dsb
 618              	@ 0 "" 2
 403:Middlewares/Third_Party/FreeRTOS/Source/event_groups.c **** 		}
 619              		.loc 1 403 4 view .LVU183
 620              	@ 403 "Middlewares/Third_Party/FreeRTOS/Source/event_groups.c" 1
 621 00a4 BFF36F8F 		isb
 622              	@ 0 "" 2
 403:Middlewares/Third_Party/FreeRTOS/Source/event_groups.c **** 		}
 623              		.loc 1 403 26 view .LVU184
 624              		.thumb
 625              		.syntax unified
 626              	.L43:
 407:Middlewares/Third_Party/FreeRTOS/Source/event_groups.c **** 		}
 627              		.loc 1 407 28 view .LVU185
 414:Middlewares/Third_Party/FreeRTOS/Source/event_groups.c **** 
ARM GAS  C:\Users\Simon\AppData\Local\Temp\cckaAEQd.s 			page 30


 628              		.loc 1 414 3 view .LVU186
 414:Middlewares/Third_Party/FreeRTOS/Source/event_groups.c **** 
 629              		.loc 1 414 14 is_stmt 0 view .LVU187
 630 00a8 FFF7FEFF 		bl	uxTaskResetEventItemValue
 631              	.LVL35:
 416:Middlewares/Third_Party/FreeRTOS/Source/event_groups.c **** 		{
 632              		.loc 1 416 5 view .LVU188
 633 00ac 10F0007F 		tst	r0, #33554432
 414:Middlewares/Third_Party/FreeRTOS/Source/event_groups.c **** 
 634              		.loc 1 414 14 view .LVU189
 635 00b0 8046     		mov	r8, r0
 636              	.LVL36:
 416:Middlewares/Third_Party/FreeRTOS/Source/event_groups.c **** 		{
 637              		.loc 1 416 3 is_stmt 1 view .LVU190
 416:Middlewares/Third_Party/FreeRTOS/Source/event_groups.c **** 		{
 638              		.loc 1 416 5 is_stmt 0 view .LVU191
 639 00b2 14D0     		beq	.L64
 640              	.LVL37:
 641              	.L38:
 447:Middlewares/Third_Party/FreeRTOS/Source/event_groups.c **** 
 642              		.loc 1 447 3 is_stmt 1 view .LVU192
 450:Middlewares/Third_Party/FreeRTOS/Source/event_groups.c **** 	}
 643              		.loc 1 450 3 view .LVU193
 450:Middlewares/Third_Party/FreeRTOS/Source/event_groups.c **** 	}
 644              		.loc 1 450 12 is_stmt 0 view .LVU194
 645 00b4 28F07F48 		bic	r8, r8, #-16777216
 646              	.LVL38:
 452:Middlewares/Third_Party/FreeRTOS/Source/event_groups.c **** 
 647              		.loc 1 452 2 is_stmt 1 view .LVU195
 455:Middlewares/Third_Party/FreeRTOS/Source/event_groups.c **** 
 648              		.loc 1 455 2 view .LVU196
 457:Middlewares/Third_Party/FreeRTOS/Source/event_groups.c **** }
 649              		.loc 1 457 2 view .LVU197
 457:Middlewares/Third_Party/FreeRTOS/Source/event_groups.c **** }
 650              		.loc 1 457 9 is_stmt 0 view .LVU198
 651 00b8 06E0     		b	.L23
 652              	.LVL39:
 653              	.L32:
 654              	.LBB103:
 655              	.LBB102:
 656              	.LBB101:
 680:Middlewares/Third_Party/FreeRTOS/Source/event_groups.c **** 		{
 681:Middlewares/Third_Party/FreeRTOS/Source/event_groups.c **** 			xWaitConditionMet = pdTRUE;
 682:Middlewares/Third_Party/FreeRTOS/Source/event_groups.c **** 		}
 683:Middlewares/Third_Party/FreeRTOS/Source/event_groups.c **** 		else
 684:Middlewares/Third_Party/FreeRTOS/Source/event_groups.c **** 		{
 685:Middlewares/Third_Party/FreeRTOS/Source/event_groups.c **** 			mtCOVERAGE_TEST_MARKER();
 686:Middlewares/Third_Party/FreeRTOS/Source/event_groups.c **** 		}
 687:Middlewares/Third_Party/FreeRTOS/Source/event_groups.c **** 	}
 688:Middlewares/Third_Party/FreeRTOS/Source/event_groups.c **** 	else
 689:Middlewares/Third_Party/FreeRTOS/Source/event_groups.c **** 	{
 690:Middlewares/Third_Party/FreeRTOS/Source/event_groups.c **** 		/* Task has to wait for all the bits in uxBitsToWaitFor to be set.
 691:Middlewares/Third_Party/FreeRTOS/Source/event_groups.c **** 		Are they set already? */
 692:Middlewares/Third_Party/FreeRTOS/Source/event_groups.c **** 		if( ( uxCurrentEventBits & uxBitsToWaitFor ) == uxBitsToWaitFor )
 657              		.loc 1 692 3 is_stmt 1 view .LVU199
 658              		.loc 1 692 5 is_stmt 0 view .LVU200
 659 00ba 34EA0803 		bics	r3, r4, r8
ARM GAS  C:\Users\Simon\AppData\Local\Temp\cckaAEQd.s 			page 31


 660 00be 06D0     		beq	.L33
 661              	.LVL40:
 662              		.loc 1 692 5 view .LVU201
 663              	.LBE101:
 664              	.LBE102:
 353:Middlewares/Third_Party/FreeRTOS/Source/event_groups.c **** 		{
 665              		.loc 1 353 8 is_stmt 1 view .LVU202
 353:Middlewares/Third_Party/FreeRTOS/Source/event_groups.c **** 		{
 666              		.loc 1 353 10 is_stmt 0 view .LVU203
 667 00c0 069B     		ldr	r3, [sp, #24]
 668 00c2 DBB9     		cbnz	r3, .L65
 669              	.LVL41:
 670              	.L45:
 394:Middlewares/Third_Party/FreeRTOS/Source/event_groups.c **** 		}
 671              		.loc 1 394 68 is_stmt 1 view .LVU204
 672              	.LBE103:
 397:Middlewares/Third_Party/FreeRTOS/Source/event_groups.c **** 
 673              		.loc 1 397 2 view .LVU205
 397:Middlewares/Third_Party/FreeRTOS/Source/event_groups.c **** 
 674              		.loc 1 397 20 is_stmt 0 view .LVU206
 675 00c4 FFF7FEFF 		bl	xTaskResumeAll
 676              	.LVL42:
 399:Middlewares/Third_Party/FreeRTOS/Source/event_groups.c **** 	{
 677              		.loc 1 399 2 is_stmt 1 view .LVU207
 678              	.L23:
 458:Middlewares/Third_Party/FreeRTOS/Source/event_groups.c **** /*-----------------------------------------------------------*/
 679              		.loc 1 458 1 is_stmt 0 view .LVU208
 680 00c8 4046     		mov	r0, r8
 681 00ca BDE8F081 		pop	{r4, r5, r6, r7, r8, pc}
 682              	.LVL43:
 683              	.L33:
 684              	.LBB104:
 340:Middlewares/Third_Party/FreeRTOS/Source/event_groups.c **** 			xTicksToWait = ( TickType_t ) 0;
 685              		.loc 1 340 4 is_stmt 1 view .LVU209
 341:Middlewares/Third_Party/FreeRTOS/Source/event_groups.c **** 
 686              		.loc 1 341 4 view .LVU210
 344:Middlewares/Third_Party/FreeRTOS/Source/event_groups.c **** 			{
 687              		.loc 1 344 4 view .LVU211
 344:Middlewares/Third_Party/FreeRTOS/Source/event_groups.c **** 			{
 688              		.loc 1 344 6 is_stmt 0 view .LVU212
 689 00ce 002E     		cmp	r6, #0
 690 00d0 F8D0     		beq	.L45
 346:Middlewares/Third_Party/FreeRTOS/Source/event_groups.c **** 			}
 691              		.loc 1 346 5 is_stmt 1 view .LVU213
 346:Middlewares/Third_Party/FreeRTOS/Source/event_groups.c **** 			}
 692              		.loc 1 346 30 is_stmt 0 view .LVU214
 693 00d2 28EA0404 		bic	r4, r8, r4
 694              	.LVL44:
 346:Middlewares/Third_Party/FreeRTOS/Source/event_groups.c **** 			}
 695              		.loc 1 346 30 view .LVU215
 696 00d6 2C60     		str	r4, [r5]
 697              	.LVL45:
 394:Middlewares/Third_Party/FreeRTOS/Source/event_groups.c **** 		}
 698              		.loc 1 394 68 is_stmt 1 view .LVU216
 699              	.LBE104:
 397:Middlewares/Third_Party/FreeRTOS/Source/event_groups.c **** 
 700              		.loc 1 397 2 view .LVU217
ARM GAS  C:\Users\Simon\AppData\Local\Temp\cckaAEQd.s 			page 32


 397:Middlewares/Third_Party/FreeRTOS/Source/event_groups.c **** 
 701              		.loc 1 397 20 is_stmt 0 view .LVU218
 702 00d8 FFF7FEFF 		bl	xTaskResumeAll
 703              	.LVL46:
 399:Middlewares/Third_Party/FreeRTOS/Source/event_groups.c **** 	{
 704              		.loc 1 399 2 is_stmt 1 view .LVU219
 705 00dc F4E7     		b	.L23
 706              	.LVL47:
 707              	.L64:
 418:Middlewares/Third_Party/FreeRTOS/Source/event_groups.c **** 			{
 708              		.loc 1 418 4 view .LVU220
 709 00de FFF7FEFF 		bl	vPortEnterCritical
 710              	.LVL48:
 421:Middlewares/Third_Party/FreeRTOS/Source/event_groups.c **** 
 711              		.loc 1 421 5 view .LVU221
 421:Middlewares/Third_Party/FreeRTOS/Source/event_groups.c **** 
 712              		.loc 1 421 14 is_stmt 0 view .LVU222
 713 00e2 D5F80080 		ldr	r8, [r5]
 714              	.LVL49:
 425:Middlewares/Third_Party/FreeRTOS/Source/event_groups.c **** 				{
 715              		.loc 1 425 5 is_stmt 1 view .LVU223
 716              	.LBB105:
 717              	.LBI105:
 671:Middlewares/Third_Party/FreeRTOS/Source/event_groups.c **** {
 718              		.loc 1 671 19 view .LVU224
 719              	.LBB106:
 673:Middlewares/Third_Party/FreeRTOS/Source/event_groups.c **** 
 720              		.loc 1 673 1 view .LVU225
 675:Middlewares/Third_Party/FreeRTOS/Source/event_groups.c **** 	{
 721              		.loc 1 675 2 view .LVU226
 675:Middlewares/Third_Party/FreeRTOS/Source/event_groups.c **** 	{
 722              		.loc 1 675 4 is_stmt 0 view .LVU227
 723 00e6 87B9     		cbnz	r7, .L39
 679:Middlewares/Third_Party/FreeRTOS/Source/event_groups.c **** 		{
 724              		.loc 1 679 3 is_stmt 1 view .LVU228
 679:Middlewares/Third_Party/FreeRTOS/Source/event_groups.c **** 		{
 725              		.loc 1 679 5 is_stmt 0 view .LVU229
 726 00e8 14EA080F 		tst	r4, r8
 727 00ec 03D0     		beq	.L41
 728              	.L40:
 729              	.LVL50:
 679:Middlewares/Third_Party/FreeRTOS/Source/event_groups.c **** 		{
 730              		.loc 1 679 5 view .LVU230
 731              	.LBE106:
 732              	.LBE105:
 427:Middlewares/Third_Party/FreeRTOS/Source/event_groups.c **** 					{
 733              		.loc 1 427 6 is_stmt 1 view .LVU231
 427:Middlewares/Third_Party/FreeRTOS/Source/event_groups.c **** 					{
 734              		.loc 1 427 8 is_stmt 0 view .LVU232
 735 00ee 16B1     		cbz	r6, .L41
 429:Middlewares/Third_Party/FreeRTOS/Source/event_groups.c **** 					}
 736              		.loc 1 429 7 is_stmt 1 view .LVU233
 429:Middlewares/Third_Party/FreeRTOS/Source/event_groups.c **** 					}
 737              		.loc 1 429 32 is_stmt 0 view .LVU234
 738 00f0 28EA0404 		bic	r4, r8, r4
 739              	.LVL51:
 429:Middlewares/Third_Party/FreeRTOS/Source/event_groups.c **** 					}
ARM GAS  C:\Users\Simon\AppData\Local\Temp\cckaAEQd.s 			page 33


 740              		.loc 1 429 32 view .LVU235
 741 00f4 2C60     		str	r4, [r5]
 742              	.L41:
 438:Middlewares/Third_Party/FreeRTOS/Source/event_groups.c **** 				}
 743              		.loc 1 438 30 is_stmt 1 view .LVU236
 440:Middlewares/Third_Party/FreeRTOS/Source/event_groups.c **** 			}
 744              		.loc 1 440 5 view .LVU237
 745              	.LVL52:
 442:Middlewares/Third_Party/FreeRTOS/Source/event_groups.c **** 		}
 746              		.loc 1 442 4 view .LVU238
 747 00f6 FFF7FEFF 		bl	vPortExitCritical
 748              	.LVL53:
 749 00fa DBE7     		b	.L38
 750              	.LVL54:
 751              	.L65:
 752              	.LBB108:
 366:Middlewares/Third_Party/FreeRTOS/Source/event_groups.c **** 			{
 753              		.loc 1 366 4 view .LVU239
 366:Middlewares/Third_Party/FreeRTOS/Source/event_groups.c **** 			{
 754              		.loc 1 366 6 is_stmt 0 view .LVU240
 755 00fc 003E     		subs	r6, r6, #0
 366:Middlewares/Third_Party/FreeRTOS/Source/event_groups.c **** 			{
 756              		.loc 1 366 6 view .LVU241
 757 00fe 18BF     		it	ne
 758 0100 0126     		movne	r6, #1
 759              	.LVL55:
 372:Middlewares/Third_Party/FreeRTOS/Source/event_groups.c **** 			}
 760              		.loc 1 372 29 is_stmt 1 view .LVU242
 375:Middlewares/Third_Party/FreeRTOS/Source/event_groups.c **** 			{
 761              		.loc 1 375 4 view .LVU243
 377:Middlewares/Third_Party/FreeRTOS/Source/event_groups.c **** 			}
 762              		.loc 1 377 5 view .LVU244
 366:Middlewares/Third_Party/FreeRTOS/Source/event_groups.c **** 			{
 763              		.loc 1 366 6 is_stmt 0 view .LVU245
 764 0102 3106     		lsls	r1, r6, #24
 377:Middlewares/Third_Party/FreeRTOS/Source/event_groups.c **** 			}
 765              		.loc 1 377 19 view .LVU246
 766 0104 41F08061 		orr	r1, r1, #67108864
 767              	.LVL56:
 377:Middlewares/Third_Party/FreeRTOS/Source/event_groups.c **** 			}
 768              		.loc 1 377 19 view .LVU247
 769 0108 BCE7     		b	.L44
 770              	.LVL57:
 771              	.L39:
 377:Middlewares/Third_Party/FreeRTOS/Source/event_groups.c **** 			}
 772              		.loc 1 377 19 view .LVU248
 773              	.LBE108:
 774              	.LBB109:
 775              	.LBB107:
 776              		.loc 1 692 3 is_stmt 1 view .LVU249
 777              		.loc 1 692 5 is_stmt 0 view .LVU250
 778 010a 34EA0803 		bics	r3, r4, r8
 779 010e F2D1     		bne	.L41
 780 0110 EDE7     		b	.L40
 781              	.LBE107:
 782              	.LBE109:
 783              		.cfi_endproc
ARM GAS  C:\Users\Simon\AppData\Local\Temp\cckaAEQd.s 			page 34


 784              	.LFE7:
 786 0112 00BF     		.section	.text.xEventGroupClearBits,"ax",%progbits
 787              		.align	1
 788              		.p2align 2,,3
 789              		.global	xEventGroupClearBits
 790              		.syntax unified
 791              		.thumb
 792              		.thumb_func
 794              	xEventGroupClearBits:
 795              	.LVL58:
 796              	.LFB8:
 462:Middlewares/Third_Party/FreeRTOS/Source/event_groups.c **** EventGroup_t *pxEventBits = xEventGroup;
 797              		.loc 1 462 1 is_stmt 1 view -0
 798              		.cfi_startproc
 799              		@ args = 0, pretend = 0, frame = 0
 800              		@ frame_needed = 0, uses_anonymous_args = 0
 463:Middlewares/Third_Party/FreeRTOS/Source/event_groups.c **** EventBits_t uxReturn;
 801              		.loc 1 463 1 view .LVU252
 464:Middlewares/Third_Party/FreeRTOS/Source/event_groups.c **** 
 802              		.loc 1 464 1 view .LVU253
 468:Middlewares/Third_Party/FreeRTOS/Source/event_groups.c **** 	configASSERT( ( uxBitsToClear & eventEVENT_BITS_CONTROL_BYTES ) == 0 );
 803              		.loc 1 468 2 view .LVU254
 804 0000 C0B1     		cbz	r0, .L73
 468:Middlewares/Third_Party/FreeRTOS/Source/event_groups.c **** 	configASSERT( ( uxBitsToClear & eventEVENT_BITS_CONTROL_BYTES ) == 0 );
 805              		.loc 1 468 29 discriminator 2 view .LVU255
 469:Middlewares/Third_Party/FreeRTOS/Source/event_groups.c **** 
 806              		.loc 1 469 2 discriminator 2 view .LVU256
 807 0002 11F07F4F 		tst	r1, #-16777216
 462:Middlewares/Third_Party/FreeRTOS/Source/event_groups.c **** EventGroup_t *pxEventBits = xEventGroup;
 808              		.loc 1 462 1 is_stmt 0 discriminator 2 view .LVU257
 809 0006 70B5     		push	{r4, r5, r6, lr}
 810              	.LCFI12:
 811              		.cfi_def_cfa_offset 16
 812              		.cfi_offset 4, -16
 813              		.cfi_offset 5, -12
 814              		.cfi_offset 6, -8
 815              		.cfi_offset 14, -4
 816 0008 0C46     		mov	r4, r1
 469:Middlewares/Third_Party/FreeRTOS/Source/event_groups.c **** 
 817              		.loc 1 469 2 discriminator 2 view .LVU258
 818 000a 08D0     		beq	.L69
 469:Middlewares/Third_Party/FreeRTOS/Source/event_groups.c **** 
 819              		.loc 1 469 2 is_stmt 1 view .LVU259
 820              	.LBB120:
 821              	.LBI120:
 191:Middlewares/Third_Party/FreeRTOS/Source/portable/GCC/ARM_CM4F/portmacro.h **** {
 822              		.loc 2 191 30 view .LVU260
 823              	.LBB121:
 193:Middlewares/Third_Party/FreeRTOS/Source/portable/GCC/ARM_CM4F/portmacro.h **** 
 824              		.loc 2 193 1 view .LVU261
 825              		.loc 2 195 2 view .LVU262
 826              		.syntax unified
 827              	@ 195 "Middlewares/Third_Party/FreeRTOS/Source/portable/GCC/ARM_CM4F/portmacro.h" 1
 828 000c 4FF05003 			mov r3, #80												
 829 0010 83F31188 		msr basepri, r3											
 830 0014 BFF36F8F 		isb														
 831 0018 BFF34F8F 		dsb														
ARM GAS  C:\Users\Simon\AppData\Local\Temp\cckaAEQd.s 			page 35


 832              	
 833              	@ 0 "" 2
 834              	.LVL59:
 835              		.thumb
 836              		.syntax unified
 837              	.L70:
 838              		.loc 2 195 2 is_stmt 0 view .LVU263
 839              	.LBE121:
 840              	.LBE120:
 469:Middlewares/Third_Party/FreeRTOS/Source/event_groups.c **** 
 841              		.loc 1 469 2 is_stmt 1 discriminator 2 view .LVU264
 469:Middlewares/Third_Party/FreeRTOS/Source/event_groups.c **** 
 842              		.loc 1 469 2 discriminator 2 view .LVU265
 469:Middlewares/Third_Party/FreeRTOS/Source/event_groups.c **** 
 843              		.loc 1 469 2 discriminator 2 view .LVU266
 469:Middlewares/Third_Party/FreeRTOS/Source/event_groups.c **** 
 844              		.loc 1 469 2 discriminator 2 view .LVU267
 845 001c FEE7     		b	.L70
 846              	.L69:
 847 001e 0646     		mov	r6, r0
 848              	.LVL60:
 849              	.LBB122:
 850              	.LBI122:
 461:Middlewares/Third_Party/FreeRTOS/Source/event_groups.c **** {
 851              		.loc 1 461 13 view .LVU268
 852              	.LBB123:
 469:Middlewares/Third_Party/FreeRTOS/Source/event_groups.c **** 
 853              		.loc 1 469 72 view .LVU269
 471:Middlewares/Third_Party/FreeRTOS/Source/event_groups.c **** 	{
 854              		.loc 1 471 2 view .LVU270
 855 0020 FFF7FEFF 		bl	vPortEnterCritical
 856              	.LVL61:
 473:Middlewares/Third_Party/FreeRTOS/Source/event_groups.c **** 
 857              		.loc 1 473 60 view .LVU271
 477:Middlewares/Third_Party/FreeRTOS/Source/event_groups.c **** 
 858              		.loc 1 477 3 view .LVU272
 477:Middlewares/Third_Party/FreeRTOS/Source/event_groups.c **** 
 859              		.loc 1 477 12 is_stmt 0 view .LVU273
 860 0024 3568     		ldr	r5, [r6]
 861              	.LVL62:
 480:Middlewares/Third_Party/FreeRTOS/Source/event_groups.c **** 	}
 862              		.loc 1 480 3 is_stmt 1 view .LVU274
 480:Middlewares/Third_Party/FreeRTOS/Source/event_groups.c **** 	}
 863              		.loc 1 480 28 is_stmt 0 view .LVU275
 864 0026 25EA0404 		bic	r4, r5, r4
 865              	.LVL63:
 480:Middlewares/Third_Party/FreeRTOS/Source/event_groups.c **** 	}
 866              		.loc 1 480 28 view .LVU276
 867 002a 3460     		str	r4, [r6]
 482:Middlewares/Third_Party/FreeRTOS/Source/event_groups.c **** 
 868              		.loc 1 482 2 is_stmt 1 view .LVU277
 869 002c FFF7FEFF 		bl	vPortExitCritical
 870              	.LVL64:
 484:Middlewares/Third_Party/FreeRTOS/Source/event_groups.c **** }
 871              		.loc 1 484 2 view .LVU278
 484:Middlewares/Third_Party/FreeRTOS/Source/event_groups.c **** }
 872              		.loc 1 484 2 is_stmt 0 view .LVU279
ARM GAS  C:\Users\Simon\AppData\Local\Temp\cckaAEQd.s 			page 36


 873              	.LBE123:
 874              	.LBE122:
 485:Middlewares/Third_Party/FreeRTOS/Source/event_groups.c **** /*-----------------------------------------------------------*/
 875              		.loc 1 485 1 view .LVU280
 876 0030 2846     		mov	r0, r5
 877 0032 70BD     		pop	{r4, r5, r6, pc}
 878              	.LVL65:
 879              	.L73:
 880              	.LCFI13:
 881              		.cfi_def_cfa_offset 0
 882              		.cfi_restore 4
 883              		.cfi_restore 5
 884              		.cfi_restore 6
 885              		.cfi_restore 14
 468:Middlewares/Third_Party/FreeRTOS/Source/event_groups.c **** 	configASSERT( ( uxBitsToClear & eventEVENT_BITS_CONTROL_BYTES ) == 0 );
 886              		.loc 1 468 2 is_stmt 1 view .LVU281
 887              	.LBB124:
 888              	.LBI124:
 191:Middlewares/Third_Party/FreeRTOS/Source/portable/GCC/ARM_CM4F/portmacro.h **** {
 889              		.loc 2 191 30 view .LVU282
 890              	.LBB125:
 193:Middlewares/Third_Party/FreeRTOS/Source/portable/GCC/ARM_CM4F/portmacro.h **** 
 891              		.loc 2 193 1 view .LVU283
 892              		.loc 2 195 2 view .LVU284
 893              		.syntax unified
 894              	@ 195 "Middlewares/Third_Party/FreeRTOS/Source/portable/GCC/ARM_CM4F/portmacro.h" 1
 895 0034 4FF05003 			mov r3, #80												
 896 0038 83F31188 		msr basepri, r3											
 897 003c BFF36F8F 		isb														
 898 0040 BFF34F8F 		dsb														
 899              	
 900              	@ 0 "" 2
 901              	.LVL66:
 902              		.thumb
 903              		.syntax unified
 904              	.L68:
 905              		.loc 2 195 2 is_stmt 0 view .LVU285
 906              	.LBE125:
 907              	.LBE124:
 468:Middlewares/Third_Party/FreeRTOS/Source/event_groups.c **** 	configASSERT( ( uxBitsToClear & eventEVENT_BITS_CONTROL_BYTES ) == 0 );
 908              		.loc 1 468 2 is_stmt 1 discriminator 1 view .LVU286
 468:Middlewares/Third_Party/FreeRTOS/Source/event_groups.c **** 	configASSERT( ( uxBitsToClear & eventEVENT_BITS_CONTROL_BYTES ) == 0 );
 909              		.loc 1 468 2 discriminator 1 view .LVU287
 468:Middlewares/Third_Party/FreeRTOS/Source/event_groups.c **** 	configASSERT( ( uxBitsToClear & eventEVENT_BITS_CONTROL_BYTES ) == 0 );
 910              		.loc 1 468 2 discriminator 1 view .LVU288
 468:Middlewares/Third_Party/FreeRTOS/Source/event_groups.c **** 	configASSERT( ( uxBitsToClear & eventEVENT_BITS_CONTROL_BYTES ) == 0 );
 911              		.loc 1 468 2 discriminator 1 view .LVU289
 912 0044 FEE7     		b	.L68
 913              		.cfi_endproc
 914              	.LFE8:
 916 0046 00BF     		.section	.text.xEventGroupClearBitsFromISR,"ax",%progbits
 917              		.align	1
 918              		.p2align 2,,3
 919              		.global	xEventGroupClearBitsFromISR
 920              		.syntax unified
 921              		.thumb
 922              		.thumb_func
ARM GAS  C:\Users\Simon\AppData\Local\Temp\cckaAEQd.s 			page 37


 924              	xEventGroupClearBitsFromISR:
 925              	.LVL67:
 926              	.LFB9:
 491:Middlewares/Third_Party/FreeRTOS/Source/event_groups.c **** 		BaseType_t xReturn;
 927              		.loc 1 491 2 view -0
 928              		.cfi_startproc
 929              		@ args = 0, pretend = 0, frame = 0
 930              		@ frame_needed = 0, uses_anonymous_args = 0
 931              		@ link register save eliminated.
 492:Middlewares/Third_Party/FreeRTOS/Source/event_groups.c **** 
 932              		.loc 1 492 3 view .LVU291
 494:Middlewares/Third_Party/FreeRTOS/Source/event_groups.c **** 		xReturn = xTimerPendFunctionCallFromISR( vEventGroupClearBitsCallback, ( void * ) xEventGroup, ( 
 933              		.loc 1 494 69 view .LVU292
 495:Middlewares/Third_Party/FreeRTOS/Source/event_groups.c **** 
 934              		.loc 1 495 3 view .LVU293
 491:Middlewares/Third_Party/FreeRTOS/Source/event_groups.c **** 		BaseType_t xReturn;
 935              		.loc 1 491 2 is_stmt 0 view .LVU294
 936 0000 8446     		mov	ip, r0
 937 0002 0A46     		mov	r2, r1
 495:Middlewares/Third_Party/FreeRTOS/Source/event_groups.c **** 
 938              		.loc 1 495 13 view .LVU295
 939 0004 0023     		movs	r3, #0
 940 0006 0248     		ldr	r0, .L75
 941              	.LVL68:
 495:Middlewares/Third_Party/FreeRTOS/Source/event_groups.c **** 
 942              		.loc 1 495 13 view .LVU296
 943 0008 6146     		mov	r1, ip
 944              	.LVL69:
 495:Middlewares/Third_Party/FreeRTOS/Source/event_groups.c **** 
 945              		.loc 1 495 13 view .LVU297
 946 000a FFF7FEBF 		b	xTimerPendFunctionCallFromISR
 947              	.LVL70:
 948              	.L76:
 495:Middlewares/Third_Party/FreeRTOS/Source/event_groups.c **** 
 949              		.loc 1 495 13 view .LVU298
 950 000e 00BF     		.align	2
 951              	.L75:
 952 0010 00000000 		.word	vEventGroupClearBitsCallback
 953              		.cfi_endproc
 954              	.LFE9:
 956              		.section	.text.xEventGroupGetBitsFromISR,"ax",%progbits
 957              		.align	1
 958              		.p2align 2,,3
 959              		.global	xEventGroupGetBitsFromISR
 960              		.syntax unified
 961              		.thumb
 962              		.thumb_func
 964              	xEventGroupGetBitsFromISR:
 965              	.LVL71:
 966              	.LFB10:
 504:Middlewares/Third_Party/FreeRTOS/Source/event_groups.c **** UBaseType_t uxSavedInterruptStatus;
 967              		.loc 1 504 1 is_stmt 1 view -0
 968              		.cfi_startproc
 969              		@ args = 0, pretend = 0, frame = 0
 970              		@ frame_needed = 0, uses_anonymous_args = 0
 971              		@ link register save eliminated.
 505:Middlewares/Third_Party/FreeRTOS/Source/event_groups.c **** EventGroup_t const * const pxEventBits = xEventGroup;
ARM GAS  C:\Users\Simon\AppData\Local\Temp\cckaAEQd.s 			page 38


 972              		.loc 1 505 1 view .LVU300
 506:Middlewares/Third_Party/FreeRTOS/Source/event_groups.c **** EventBits_t uxReturn;
 973              		.loc 1 506 1 view .LVU301
 507:Middlewares/Third_Party/FreeRTOS/Source/event_groups.c **** 
 974              		.loc 1 507 1 view .LVU302
 509:Middlewares/Third_Party/FreeRTOS/Source/event_groups.c **** 	{
 975              		.loc 1 509 2 view .LVU303
 976              	.LBB126:
 977              	.LBI126:
 196:Middlewares/Third_Party/FreeRTOS/Source/portable/GCC/ARM_CM4F/portmacro.h **** 	(
 197:Middlewares/Third_Party/FreeRTOS/Source/portable/GCC/ARM_CM4F/portmacro.h **** 		"	mov %0, %1												\n"	\
 198:Middlewares/Third_Party/FreeRTOS/Source/portable/GCC/ARM_CM4F/portmacro.h **** 		"	msr basepri, %0											\n" \
 199:Middlewares/Third_Party/FreeRTOS/Source/portable/GCC/ARM_CM4F/portmacro.h **** 		"	isb														\n" \
 200:Middlewares/Third_Party/FreeRTOS/Source/portable/GCC/ARM_CM4F/portmacro.h **** 		"	dsb														\n" \
 201:Middlewares/Third_Party/FreeRTOS/Source/portable/GCC/ARM_CM4F/portmacro.h **** 		:"=r" (ulNewBASEPRI) : "i" ( configMAX_SYSCALL_INTERRUPT_PRIORITY ) : "memory"
 202:Middlewares/Third_Party/FreeRTOS/Source/portable/GCC/ARM_CM4F/portmacro.h **** 	);
 203:Middlewares/Third_Party/FreeRTOS/Source/portable/GCC/ARM_CM4F/portmacro.h **** }
 204:Middlewares/Third_Party/FreeRTOS/Source/portable/GCC/ARM_CM4F/portmacro.h **** 
 205:Middlewares/Third_Party/FreeRTOS/Source/portable/GCC/ARM_CM4F/portmacro.h **** /*-----------------------------------------------------------*/
 206:Middlewares/Third_Party/FreeRTOS/Source/portable/GCC/ARM_CM4F/portmacro.h **** 
 207:Middlewares/Third_Party/FreeRTOS/Source/portable/GCC/ARM_CM4F/portmacro.h **** portFORCE_INLINE static uint32_t ulPortRaiseBASEPRI( void )
 978              		.loc 2 207 34 view .LVU304
 979              	.LBB127:
 208:Middlewares/Third_Party/FreeRTOS/Source/portable/GCC/ARM_CM4F/portmacro.h **** {
 209:Middlewares/Third_Party/FreeRTOS/Source/portable/GCC/ARM_CM4F/portmacro.h **** uint32_t ulOriginalBASEPRI, ulNewBASEPRI;
 980              		.loc 2 209 1 view .LVU305
 210:Middlewares/Third_Party/FreeRTOS/Source/portable/GCC/ARM_CM4F/portmacro.h **** 
 211:Middlewares/Third_Party/FreeRTOS/Source/portable/GCC/ARM_CM4F/portmacro.h **** 	__asm volatile
 981              		.loc 2 211 2 view .LVU306
 982              		.syntax unified
 983              	@ 211 "Middlewares/Third_Party/FreeRTOS/Source/portable/GCC/ARM_CM4F/portmacro.h" 1
 984 0000 EFF31183 			mrs r3, basepri											
 985 0004 4FF05002 		mov r2, #80												
 986 0008 82F31188 		msr basepri, r2											
 987 000c BFF36F8F 		isb														
 988 0010 BFF34F8F 		dsb														
 989              	
 990              	@ 0 "" 2
 991              	.LVL72:
 212:Middlewares/Third_Party/FreeRTOS/Source/portable/GCC/ARM_CM4F/portmacro.h **** 	(
 213:Middlewares/Third_Party/FreeRTOS/Source/portable/GCC/ARM_CM4F/portmacro.h **** 		"	mrs %0, basepri											\n" \
 214:Middlewares/Third_Party/FreeRTOS/Source/portable/GCC/ARM_CM4F/portmacro.h **** 		"	mov %1, %2												\n"	\
 215:Middlewares/Third_Party/FreeRTOS/Source/portable/GCC/ARM_CM4F/portmacro.h **** 		"	msr basepri, %1											\n" \
 216:Middlewares/Third_Party/FreeRTOS/Source/portable/GCC/ARM_CM4F/portmacro.h **** 		"	isb														\n" \
 217:Middlewares/Third_Party/FreeRTOS/Source/portable/GCC/ARM_CM4F/portmacro.h **** 		"	dsb														\n" \
 218:Middlewares/Third_Party/FreeRTOS/Source/portable/GCC/ARM_CM4F/portmacro.h **** 		:"=r" (ulOriginalBASEPRI), "=r" (ulNewBASEPRI) : "i" ( configMAX_SYSCALL_INTERRUPT_PRIORITY ) : "
 219:Middlewares/Third_Party/FreeRTOS/Source/portable/GCC/ARM_CM4F/portmacro.h **** 	);
 220:Middlewares/Third_Party/FreeRTOS/Source/portable/GCC/ARM_CM4F/portmacro.h **** 
 221:Middlewares/Third_Party/FreeRTOS/Source/portable/GCC/ARM_CM4F/portmacro.h **** 	/* This return will not be reached but is necessary to prevent compiler
 222:Middlewares/Third_Party/FreeRTOS/Source/portable/GCC/ARM_CM4F/portmacro.h **** 	warnings. */
 223:Middlewares/Third_Party/FreeRTOS/Source/portable/GCC/ARM_CM4F/portmacro.h **** 	return ulOriginalBASEPRI;
 992              		.loc 2 223 2 view .LVU307
 993              		.loc 2 223 2 is_stmt 0 view .LVU308
 994              		.thumb
 995              		.syntax unified
 996              	.LBE127:
 997              	.LBE126:
ARM GAS  C:\Users\Simon\AppData\Local\Temp\cckaAEQd.s 			page 39


 511:Middlewares/Third_Party/FreeRTOS/Source/event_groups.c **** 	}
 998              		.loc 1 511 3 is_stmt 1 view .LVU309
 511:Middlewares/Third_Party/FreeRTOS/Source/event_groups.c **** 	}
 999              		.loc 1 511 12 is_stmt 0 view .LVU310
 1000 0014 0068     		ldr	r0, [r0]
 1001              	.LVL73:
 513:Middlewares/Third_Party/FreeRTOS/Source/event_groups.c **** 
 1002              		.loc 1 513 2 is_stmt 1 view .LVU311
 1003              	.LBB128:
 1004              	.LBI128:
 224:Middlewares/Third_Party/FreeRTOS/Source/portable/GCC/ARM_CM4F/portmacro.h **** }
 225:Middlewares/Third_Party/FreeRTOS/Source/portable/GCC/ARM_CM4F/portmacro.h **** /*-----------------------------------------------------------*/
 226:Middlewares/Third_Party/FreeRTOS/Source/portable/GCC/ARM_CM4F/portmacro.h **** 
 227:Middlewares/Third_Party/FreeRTOS/Source/portable/GCC/ARM_CM4F/portmacro.h **** portFORCE_INLINE static void vPortSetBASEPRI( uint32_t ulNewMaskValue )
 1005              		.loc 2 227 30 view .LVU312
 1006              	.LBB129:
 228:Middlewares/Third_Party/FreeRTOS/Source/portable/GCC/ARM_CM4F/portmacro.h **** {
 229:Middlewares/Third_Party/FreeRTOS/Source/portable/GCC/ARM_CM4F/portmacro.h **** 	__asm volatile
 1007              		.loc 2 229 2 view .LVU313
 1008              		.syntax unified
 1009              	@ 229 "Middlewares/Third_Party/FreeRTOS/Source/portable/GCC/ARM_CM4F/portmacro.h" 1
 1010 0016 83F31188 			msr basepri, r3	
 1011              	@ 0 "" 2
 1012              	.LVL74:
 1013              		.loc 2 229 2 is_stmt 0 view .LVU314
 1014              		.thumb
 1015              		.syntax unified
 1016              	.LBE129:
 1017              	.LBE128:
 515:Middlewares/Third_Party/FreeRTOS/Source/event_groups.c **** } /*lint !e818 EventGroupHandle_t is a typedef used in other functions to so can't be pointer to co
 1018              		.loc 1 515 2 is_stmt 1 view .LVU315
 516:Middlewares/Third_Party/FreeRTOS/Source/event_groups.c **** /*-----------------------------------------------------------*/
 1019              		.loc 1 516 1 is_stmt 0 view .LVU316
 1020 001a 7047     		bx	lr
 1021              		.cfi_endproc
 1022              	.LFE10:
 1024              		.section	.text.xEventGroupSetBits,"ax",%progbits
 1025              		.align	1
 1026              		.p2align 2,,3
 1027              		.global	xEventGroupSetBits
 1028              		.syntax unified
 1029              		.thumb
 1030              		.thumb_func
 1032              	xEventGroupSetBits:
 1033              	.LVL75:
 1034              	.LFB11:
 520:Middlewares/Third_Party/FreeRTOS/Source/event_groups.c **** ListItem_t *pxListItem, *pxNext;
 1035              		.loc 1 520 1 is_stmt 1 view -0
 1036              		.cfi_startproc
 1037              		@ args = 0, pretend = 0, frame = 0
 1038              		@ frame_needed = 0, uses_anonymous_args = 0
 521:Middlewares/Third_Party/FreeRTOS/Source/event_groups.c **** ListItem_t const *pxListEnd;
 1039              		.loc 1 521 1 view .LVU318
 522:Middlewares/Third_Party/FreeRTOS/Source/event_groups.c **** List_t const * pxList;
 1040              		.loc 1 522 1 view .LVU319
 523:Middlewares/Third_Party/FreeRTOS/Source/event_groups.c **** EventBits_t uxBitsToClear = 0, uxBitsWaitedFor, uxControlBits;
 1041              		.loc 1 523 1 view .LVU320
ARM GAS  C:\Users\Simon\AppData\Local\Temp\cckaAEQd.s 			page 40


 524:Middlewares/Third_Party/FreeRTOS/Source/event_groups.c **** EventGroup_t *pxEventBits = xEventGroup;
 1042              		.loc 1 524 1 view .LVU321
 525:Middlewares/Third_Party/FreeRTOS/Source/event_groups.c **** BaseType_t xMatchFound = pdFALSE;
 1043              		.loc 1 525 1 view .LVU322
 526:Middlewares/Third_Party/FreeRTOS/Source/event_groups.c **** 
 1044              		.loc 1 526 1 view .LVU323
 530:Middlewares/Third_Party/FreeRTOS/Source/event_groups.c **** 	configASSERT( ( uxBitsToSet & eventEVENT_BITS_CONTROL_BYTES ) == 0 );
 1045              		.loc 1 530 2 view .LVU324
 1046 0000 0028     		cmp	r0, #0
 1047 0002 3ED0     		beq	.L96
 530:Middlewares/Third_Party/FreeRTOS/Source/event_groups.c **** 	configASSERT( ( uxBitsToSet & eventEVENT_BITS_CONTROL_BYTES ) == 0 );
 1048              		.loc 1 530 29 discriminator 2 view .LVU325
 531:Middlewares/Third_Party/FreeRTOS/Source/event_groups.c **** 
 1049              		.loc 1 531 2 discriminator 2 view .LVU326
 520:Middlewares/Third_Party/FreeRTOS/Source/event_groups.c **** ListItem_t *pxListItem, *pxNext;
 1050              		.loc 1 520 1 is_stmt 0 discriminator 2 view .LVU327
 1051 0004 2DE9F041 		push	{r4, r5, r6, r7, r8, lr}
 1052              	.LCFI14:
 1053              		.cfi_def_cfa_offset 24
 1054              		.cfi_offset 4, -24
 1055              		.cfi_offset 5, -20
 1056              		.cfi_offset 6, -16
 1057              		.cfi_offset 7, -12
 1058              		.cfi_offset 8, -8
 1059              		.cfi_offset 14, -4
 531:Middlewares/Third_Party/FreeRTOS/Source/event_groups.c **** 
 1060              		.loc 1 531 2 discriminator 2 view .LVU328
 1061 0008 11F07F46 		ands	r6, r1, #-16777216
 1062 000c 8846     		mov	r8, r1
 1063 000e 08D0     		beq	.L81
 531:Middlewares/Third_Party/FreeRTOS/Source/event_groups.c **** 
 1064              		.loc 1 531 2 is_stmt 1 view .LVU329
 1065              	.LBB140:
 1066              	.LBI140:
 191:Middlewares/Third_Party/FreeRTOS/Source/portable/GCC/ARM_CM4F/portmacro.h **** {
 1067              		.loc 2 191 30 view .LVU330
 1068              	.LBB141:
 193:Middlewares/Third_Party/FreeRTOS/Source/portable/GCC/ARM_CM4F/portmacro.h **** 
 1069              		.loc 2 193 1 view .LVU331
 195:Middlewares/Third_Party/FreeRTOS/Source/portable/GCC/ARM_CM4F/portmacro.h **** 	(
 1070              		.loc 2 195 2 view .LVU332
 1071              		.syntax unified
 1072              	@ 195 "Middlewares/Third_Party/FreeRTOS/Source/portable/GCC/ARM_CM4F/portmacro.h" 1
 1073 0010 4FF05003 			mov r3, #80												
 1074 0014 83F31188 		msr basepri, r3											
 1075 0018 BFF36F8F 		isb														
 1076 001c BFF34F8F 		dsb														
 1077              	
 1078              	@ 0 "" 2
 1079              	.LVL76:
 1080              		.thumb
 1081              		.syntax unified
 1082              	.L82:
 195:Middlewares/Third_Party/FreeRTOS/Source/portable/GCC/ARM_CM4F/portmacro.h **** 	(
 1083              		.loc 2 195 2 is_stmt 0 view .LVU333
 1084              	.LBE141:
 1085              	.LBE140:
ARM GAS  C:\Users\Simon\AppData\Local\Temp\cckaAEQd.s 			page 41


 531:Middlewares/Third_Party/FreeRTOS/Source/event_groups.c **** 
 1086              		.loc 1 531 2 is_stmt 1 discriminator 2 view .LVU334
 531:Middlewares/Third_Party/FreeRTOS/Source/event_groups.c **** 
 1087              		.loc 1 531 2 discriminator 2 view .LVU335
 531:Middlewares/Third_Party/FreeRTOS/Source/event_groups.c **** 
 1088              		.loc 1 531 2 discriminator 2 view .LVU336
 531:Middlewares/Third_Party/FreeRTOS/Source/event_groups.c **** 
 1089              		.loc 1 531 2 discriminator 2 view .LVU337
 1090 0020 FEE7     		b	.L82
 1091              	.L81:
 1092 0022 0546     		mov	r5, r0
 1093              	.LVL77:
 1094              	.LBB142:
 1095              	.LBI142:
 519:Middlewares/Third_Party/FreeRTOS/Source/event_groups.c **** {
 1096              		.loc 1 519 13 view .LVU338
 1097              	.LBB143:
 531:Middlewares/Third_Party/FreeRTOS/Source/event_groups.c **** 
 1098              		.loc 1 531 70 view .LVU339
 533:Middlewares/Third_Party/FreeRTOS/Source/event_groups.c **** 	pxListEnd = listGET_END_MARKER( pxList ); /*lint !e826 !e740 !e9087 The mini list structure is use
 1099              		.loc 1 533 2 view .LVU340
 534:Middlewares/Third_Party/FreeRTOS/Source/event_groups.c **** 	vTaskSuspendAll();
 1100              		.loc 1 534 2 view .LVU341
 535:Middlewares/Third_Party/FreeRTOS/Source/event_groups.c **** 	{
 1101              		.loc 1 535 2 is_stmt 0 view .LVU342
 1102 0024 FFF7FEFF 		bl	vTaskSuspendAll
 1103              	.LVL78:
 534:Middlewares/Third_Party/FreeRTOS/Source/event_groups.c **** 	vTaskSuspendAll();
 1104              		.loc 1 534 12 view .LVU343
 1105 0028 05F10C07 		add	r7, r5, #12
 1106              	.LVL79:
 535:Middlewares/Third_Party/FreeRTOS/Source/event_groups.c **** 	{
 1107              		.loc 1 535 2 is_stmt 1 view .LVU344
 537:Middlewares/Third_Party/FreeRTOS/Source/event_groups.c **** 
 1108              		.loc 1 537 56 view .LVU345
 539:Middlewares/Third_Party/FreeRTOS/Source/event_groups.c **** 
 1109              		.loc 1 539 3 view .LVU346
 542:Middlewares/Third_Party/FreeRTOS/Source/event_groups.c **** 
 1110              		.loc 1 542 28 is_stmt 0 view .LVU347
 1111 002c 2B68     		ldr	r3, [r5]
 539:Middlewares/Third_Party/FreeRTOS/Source/event_groups.c **** 
 1112              		.loc 1 539 14 view .LVU348
 1113 002e 2C69     		ldr	r4, [r5, #16]
 1114              	.LVL80:
 542:Middlewares/Third_Party/FreeRTOS/Source/event_groups.c **** 
 1115              		.loc 1 542 3 is_stmt 1 view .LVU349
 542:Middlewares/Third_Party/FreeRTOS/Source/event_groups.c **** 
 1116              		.loc 1 542 28 is_stmt 0 view .LVU350
 1117 0030 48EA0303 		orr	r3, r8, r3
 545:Middlewares/Third_Party/FreeRTOS/Source/event_groups.c **** 		{
 1118              		.loc 1 545 21 view .LVU351
 1119 0034 A742     		cmp	r7, r4
 542:Middlewares/Third_Party/FreeRTOS/Source/event_groups.c **** 
 1120              		.loc 1 542 28 view .LVU352
 1121 0036 2B60     		str	r3, [r5]
 545:Middlewares/Third_Party/FreeRTOS/Source/event_groups.c **** 		{
 1122              		.loc 1 545 3 is_stmt 1 view .LVU353
ARM GAS  C:\Users\Simon\AppData\Local\Temp\cckaAEQd.s 			page 42


 1123              	.LVL81:
 545:Middlewares/Third_Party/FreeRTOS/Source/event_groups.c **** 		{
 1124              		.loc 1 545 21 view .LVU354
 1125 0038 0CD1     		bne	.L88
 545:Middlewares/Third_Party/FreeRTOS/Source/event_groups.c **** 		{
 1126              		.loc 1 545 21 is_stmt 0 view .LVU355
 1127 003a 1CE0     		b	.L83
 1128              	.LVL82:
 1129              	.L98:
 558:Middlewares/Third_Party/FreeRTOS/Source/event_groups.c **** 				{
 1130              		.loc 1 558 7 view .LVU356
 1131 003c 1CEA030F 		tst	ip, r3
 1132 0040 06D0     		beq	.L86
 1133              	.L85:
 582:Middlewares/Third_Party/FreeRTOS/Source/event_groups.c **** 				}
 1134              		.loc 1 582 6 is_stmt 1 view .LVU357
 580:Middlewares/Third_Party/FreeRTOS/Source/event_groups.c **** 				{
 1135              		.loc 1 580 7 is_stmt 0 view .LVU358
 1136 0042 D301     		lsls	r3, r2, #7
 582:Middlewares/Third_Party/FreeRTOS/Source/event_groups.c **** 				}
 1137              		.loc 1 582 20 view .LVU359
 1138 0044 48BF     		it	mi
 1139 0046 46EA0C06 		orrmi	r6, r6, ip
 1140              	.LVL83:
 586:Middlewares/Third_Party/FreeRTOS/Source/event_groups.c **** 				}
 1141              		.loc 1 586 30 is_stmt 1 view .LVU360
 594:Middlewares/Third_Party/FreeRTOS/Source/event_groups.c **** 			}
 1142              		.loc 1 594 5 view .LVU361
 1143 004a FFF7FEFF 		bl	vTaskRemoveFromUnorderedEventList
 1144              	.LVL84:
 605:Middlewares/Third_Party/FreeRTOS/Source/event_groups.c **** 	}
 1145              		.loc 1 605 28 is_stmt 0 view .LVU362
 1146 004e 2B68     		ldr	r3, [r5]
 1147              	.L86:
 1148              	.LVL85:
 545:Middlewares/Third_Party/FreeRTOS/Source/event_groups.c **** 		{
 1149              		.loc 1 545 21 is_stmt 1 view .LVU363
 1150 0050 A742     		cmp	r7, r4
 1151 0052 0ED0     		beq	.L97
 1152              	.LVL86:
 1153              	.L88:
 547:Middlewares/Third_Party/FreeRTOS/Source/event_groups.c **** 			uxBitsWaitedFor = listGET_LIST_ITEM_VALUE( pxListItem );
 1154              		.loc 1 547 4 view .LVU364
 558:Middlewares/Third_Party/FreeRTOS/Source/event_groups.c **** 				{
 1155              		.loc 1 558 5 view .LVU365
 567:Middlewares/Third_Party/FreeRTOS/Source/event_groups.c **** 			{
 1156              		.loc 1 567 9 view .LVU366
 580:Middlewares/Third_Party/FreeRTOS/Source/event_groups.c **** 				{
 1157              		.loc 1 580 5 view .LVU367
 1158 0054 2046     		mov	r0, r4
 594:Middlewares/Third_Party/FreeRTOS/Source/event_groups.c **** 			}
 1159              		.loc 1 594 5 is_stmt 0 view .LVU368
 1160 0056 43F00071 		orr	r1, r3, #33554432
 547:Middlewares/Third_Party/FreeRTOS/Source/event_groups.c **** 			uxBitsWaitedFor = listGET_LIST_ITEM_VALUE( pxListItem );
 1161              		.loc 1 547 11 view .LVU369
 1162 005a 6468     		ldr	r4, [r4, #4]
 1163              	.LVL87:
ARM GAS  C:\Users\Simon\AppData\Local\Temp\cckaAEQd.s 			page 43


 548:Middlewares/Third_Party/FreeRTOS/Source/event_groups.c **** 			xMatchFound = pdFALSE;
 1164              		.loc 1 548 4 is_stmt 1 view .LVU370
 548:Middlewares/Third_Party/FreeRTOS/Source/event_groups.c **** 			xMatchFound = pdFALSE;
 1165              		.loc 1 548 20 is_stmt 0 view .LVU371
 1166 005c 0268     		ldr	r2, [r0]
 1167              	.LVL88:
 549:Middlewares/Third_Party/FreeRTOS/Source/event_groups.c **** 
 1168              		.loc 1 549 4 is_stmt 1 view .LVU372
 552:Middlewares/Third_Party/FreeRTOS/Source/event_groups.c **** 			uxBitsWaitedFor &= ~eventEVENT_BITS_CONTROL_BYTES;
 1169              		.loc 1 552 4 view .LVU373
 553:Middlewares/Third_Party/FreeRTOS/Source/event_groups.c **** 
 1170              		.loc 1 553 4 view .LVU374
 555:Middlewares/Third_Party/FreeRTOS/Source/event_groups.c **** 			{
 1171              		.loc 1 555 6 is_stmt 0 view .LVU375
 1172 005e 12F0806F 		tst	r2, #67108864
 553:Middlewares/Third_Party/FreeRTOS/Source/event_groups.c **** 
 1173              		.loc 1 553 20 view .LVU376
 1174 0062 22F07F4C 		bic	ip, r2, #-16777216
 1175              	.LVL89:
 555:Middlewares/Third_Party/FreeRTOS/Source/event_groups.c **** 			{
 1176              		.loc 1 555 4 is_stmt 1 view .LVU377
 555:Middlewares/Third_Party/FreeRTOS/Source/event_groups.c **** 			{
 1177              		.loc 1 555 6 is_stmt 0 view .LVU378
 1178 0066 E9D0     		beq	.L98
 567:Middlewares/Third_Party/FreeRTOS/Source/event_groups.c **** 			{
 1179              		.loc 1 567 11 view .LVU379
 1180 0068 3CEA030E 		bics	lr, ip, r3
 1181 006c E9D0     		beq	.L85
 1182              	.LVL90:
 545:Middlewares/Third_Party/FreeRTOS/Source/event_groups.c **** 		{
 1183              		.loc 1 545 21 is_stmt 1 view .LVU380
 1184 006e A742     		cmp	r7, r4
 1185 0070 F0D1     		bne	.L88
 1186              	.LVL91:
 1187              	.L97:
 605:Middlewares/Third_Party/FreeRTOS/Source/event_groups.c **** 	}
 1188              		.loc 1 605 28 is_stmt 0 view .LVU381
 1189 0072 23EA0603 		bic	r3, r3, r6
 1190              	.LVL92:
 1191              	.L83:
 605:Middlewares/Third_Party/FreeRTOS/Source/event_groups.c **** 	}
 1192              		.loc 1 605 3 is_stmt 1 view .LVU382
 605:Middlewares/Third_Party/FreeRTOS/Source/event_groups.c **** 	}
 1193              		.loc 1 605 28 is_stmt 0 view .LVU383
 1194 0076 2B60     		str	r3, [r5]
 607:Middlewares/Third_Party/FreeRTOS/Source/event_groups.c **** 
 1195              		.loc 1 607 2 is_stmt 1 view .LVU384
 607:Middlewares/Third_Party/FreeRTOS/Source/event_groups.c **** 
 1196              		.loc 1 607 11 is_stmt 0 view .LVU385
 1197 0078 FFF7FEFF 		bl	xTaskResumeAll
 1198              	.LVL93:
 609:Middlewares/Third_Party/FreeRTOS/Source/event_groups.c **** }
 1199              		.loc 1 609 2 is_stmt 1 view .LVU386
 609:Middlewares/Third_Party/FreeRTOS/Source/event_groups.c **** }
 1200              		.loc 1 609 2 is_stmt 0 view .LVU387
 1201              	.LBE143:
 1202              	.LBE142:
ARM GAS  C:\Users\Simon\AppData\Local\Temp\cckaAEQd.s 			page 44


 610:Middlewares/Third_Party/FreeRTOS/Source/event_groups.c **** /*-----------------------------------------------------------*/
 1203              		.loc 1 610 1 view .LVU388
 1204 007c 2868     		ldr	r0, [r5]
 1205 007e BDE8F081 		pop	{r4, r5, r6, r7, r8, pc}
 1206              	.LVL94:
 1207              	.L96:
 1208              	.LCFI15:
 1209              		.cfi_def_cfa_offset 0
 1210              		.cfi_restore 4
 1211              		.cfi_restore 5
 1212              		.cfi_restore 6
 1213              		.cfi_restore 7
 1214              		.cfi_restore 8
 1215              		.cfi_restore 14
 530:Middlewares/Third_Party/FreeRTOS/Source/event_groups.c **** 	configASSERT( ( uxBitsToSet & eventEVENT_BITS_CONTROL_BYTES ) == 0 );
 1216              		.loc 1 530 2 is_stmt 1 view .LVU389
 1217              	.LBB144:
 1218              	.LBI144:
 191:Middlewares/Third_Party/FreeRTOS/Source/portable/GCC/ARM_CM4F/portmacro.h **** {
 1219              		.loc 2 191 30 view .LVU390
 1220              	.LBB145:
 193:Middlewares/Third_Party/FreeRTOS/Source/portable/GCC/ARM_CM4F/portmacro.h **** 
 1221              		.loc 2 193 1 view .LVU391
 195:Middlewares/Third_Party/FreeRTOS/Source/portable/GCC/ARM_CM4F/portmacro.h **** 	(
 1222              		.loc 2 195 2 view .LVU392
 1223              		.syntax unified
 1224              	@ 195 "Middlewares/Third_Party/FreeRTOS/Source/portable/GCC/ARM_CM4F/portmacro.h" 1
 1225 0082 4FF05003 			mov r3, #80												
 1226 0086 83F31188 		msr basepri, r3											
 1227 008a BFF36F8F 		isb														
 1228 008e BFF34F8F 		dsb														
 1229              	
 1230              	@ 0 "" 2
 1231              	.LVL95:
 1232              		.thumb
 1233              		.syntax unified
 1234              	.L80:
 195:Middlewares/Third_Party/FreeRTOS/Source/portable/GCC/ARM_CM4F/portmacro.h **** 	(
 1235              		.loc 2 195 2 is_stmt 0 view .LVU393
 1236              	.LBE145:
 1237              	.LBE144:
 530:Middlewares/Third_Party/FreeRTOS/Source/event_groups.c **** 	configASSERT( ( uxBitsToSet & eventEVENT_BITS_CONTROL_BYTES ) == 0 );
 1238              		.loc 1 530 2 is_stmt 1 discriminator 1 view .LVU394
 530:Middlewares/Third_Party/FreeRTOS/Source/event_groups.c **** 	configASSERT( ( uxBitsToSet & eventEVENT_BITS_CONTROL_BYTES ) == 0 );
 1239              		.loc 1 530 2 discriminator 1 view .LVU395
 530:Middlewares/Third_Party/FreeRTOS/Source/event_groups.c **** 	configASSERT( ( uxBitsToSet & eventEVENT_BITS_CONTROL_BYTES ) == 0 );
 1240              		.loc 1 530 2 discriminator 1 view .LVU396
 530:Middlewares/Third_Party/FreeRTOS/Source/event_groups.c **** 	configASSERT( ( uxBitsToSet & eventEVENT_BITS_CONTROL_BYTES ) == 0 );
 1241              		.loc 1 530 2 discriminator 1 view .LVU397
 1242 0092 FEE7     		b	.L80
 1243              		.cfi_endproc
 1244              	.LFE11:
 1246              		.section	.text.xEventGroupSync,"ax",%progbits
 1247              		.align	1
 1248              		.p2align 2,,3
 1249              		.global	xEventGroupSync
 1250              		.syntax unified
ARM GAS  C:\Users\Simon\AppData\Local\Temp\cckaAEQd.s 			page 45


 1251              		.thumb
 1252              		.thumb_func
 1254              	xEventGroupSync:
 1255              	.LVL96:
 1256              	.LFB6:
 192:Middlewares/Third_Party/FreeRTOS/Source/event_groups.c **** EventBits_t uxOriginalBitValue, uxReturn;
 1257              		.loc 1 192 1 view -0
 1258              		.cfi_startproc
 1259              		@ args = 0, pretend = 0, frame = 0
 1260              		@ frame_needed = 0, uses_anonymous_args = 0
 193:Middlewares/Third_Party/FreeRTOS/Source/event_groups.c **** EventGroup_t *pxEventBits = xEventGroup;
 1261              		.loc 1 193 1 view .LVU399
 194:Middlewares/Third_Party/FreeRTOS/Source/event_groups.c **** BaseType_t xAlreadyYielded;
 1262              		.loc 1 194 1 view .LVU400
 195:Middlewares/Third_Party/FreeRTOS/Source/event_groups.c **** BaseType_t xTimeoutOccurred = pdFALSE;
 1263              		.loc 1 195 1 view .LVU401
 196:Middlewares/Third_Party/FreeRTOS/Source/event_groups.c **** 
 1264              		.loc 1 196 1 view .LVU402
 198:Middlewares/Third_Party/FreeRTOS/Source/event_groups.c **** 	configASSERT( uxBitsToWaitFor != 0 );
 1265              		.loc 1 198 2 view .LVU403
 1266 0000 12F07F4F 		tst	r2, #-16777216
 1267 0004 08D0     		beq	.L100
 198:Middlewares/Third_Party/FreeRTOS/Source/event_groups.c **** 	configASSERT( uxBitsToWaitFor != 0 );
 1268              		.loc 1 198 2 view .LVU404
 1269              	.LBB146:
 1270              	.LBI146:
 191:Middlewares/Third_Party/FreeRTOS/Source/portable/GCC/ARM_CM4F/portmacro.h **** {
 1271              		.loc 2 191 30 view .LVU405
 1272              	.LBB147:
 193:Middlewares/Third_Party/FreeRTOS/Source/portable/GCC/ARM_CM4F/portmacro.h **** 
 1273              		.loc 2 193 1 view .LVU406
 195:Middlewares/Third_Party/FreeRTOS/Source/portable/GCC/ARM_CM4F/portmacro.h **** 	(
 1274              		.loc 2 195 2 view .LVU407
 1275              		.syntax unified
 1276              	@ 195 "Middlewares/Third_Party/FreeRTOS/Source/portable/GCC/ARM_CM4F/portmacro.h" 1
 1277 0006 4FF05003 			mov r3, #80												
 1278 000a 83F31188 		msr basepri, r3											
 1279 000e BFF36F8F 		isb														
 1280 0012 BFF34F8F 		dsb														
 1281              	
 1282              	@ 0 "" 2
 1283              	.LVL97:
 1284              		.thumb
 1285              		.syntax unified
 1286              	.L101:
 195:Middlewares/Third_Party/FreeRTOS/Source/portable/GCC/ARM_CM4F/portmacro.h **** 	(
 1287              		.loc 2 195 2 is_stmt 0 view .LVU408
 1288              	.LBE147:
 1289              	.LBE146:
 198:Middlewares/Third_Party/FreeRTOS/Source/event_groups.c **** 	configASSERT( uxBitsToWaitFor != 0 );
 1290              		.loc 1 198 2 is_stmt 1 discriminator 1 view .LVU409
 198:Middlewares/Third_Party/FreeRTOS/Source/event_groups.c **** 	configASSERT( uxBitsToWaitFor != 0 );
 1291              		.loc 1 198 2 discriminator 1 view .LVU410
 198:Middlewares/Third_Party/FreeRTOS/Source/event_groups.c **** 	configASSERT( uxBitsToWaitFor != 0 );
 1292              		.loc 1 198 2 discriminator 1 view .LVU411
 198:Middlewares/Third_Party/FreeRTOS/Source/event_groups.c **** 	configASSERT( uxBitsToWaitFor != 0 );
 1293              		.loc 1 198 2 discriminator 1 view .LVU412
ARM GAS  C:\Users\Simon\AppData\Local\Temp\cckaAEQd.s 			page 46


 1294 0016 FEE7     		b	.L101
 1295              	.LVL98:
 1296              	.L100:
 198:Middlewares/Third_Party/FreeRTOS/Source/event_groups.c **** 	configASSERT( uxBitsToWaitFor != 0 );
 1297              		.loc 1 198 74 discriminator 2 view .LVU413
 199:Middlewares/Third_Party/FreeRTOS/Source/event_groups.c **** 	#if ( ( INCLUDE_xTaskGetSchedulerState == 1 ) || ( configUSE_TIMERS == 1 ) )
 1298              		.loc 1 199 2 discriminator 2 view .LVU414
 192:Middlewares/Third_Party/FreeRTOS/Source/event_groups.c **** EventBits_t uxOriginalBitValue, uxReturn;
 1299              		.loc 1 192 1 is_stmt 0 discriminator 2 view .LVU415
 1300 0018 2DE9F041 		push	{r4, r5, r6, r7, r8, lr}
 1301              	.LCFI16:
 1302              		.cfi_def_cfa_offset 24
 1303              		.cfi_offset 4, -24
 1304              		.cfi_offset 5, -20
 1305              		.cfi_offset 6, -16
 1306              		.cfi_offset 7, -12
 1307              		.cfi_offset 8, -8
 1308              		.cfi_offset 14, -4
 1309 001c 1446     		mov	r4, r2
 199:Middlewares/Third_Party/FreeRTOS/Source/event_groups.c **** 	#if ( ( INCLUDE_xTaskGetSchedulerState == 1 ) || ( configUSE_TIMERS == 1 ) )
 1310              		.loc 1 199 2 discriminator 2 view .LVU416
 1311 001e 42B9     		cbnz	r2, .L102
 199:Middlewares/Third_Party/FreeRTOS/Source/event_groups.c **** 	#if ( ( INCLUDE_xTaskGetSchedulerState == 1 ) || ( configUSE_TIMERS == 1 ) )
 1312              		.loc 1 199 2 is_stmt 1 view .LVU417
 1313              	.LBB148:
 1314              	.LBI148:
 191:Middlewares/Third_Party/FreeRTOS/Source/portable/GCC/ARM_CM4F/portmacro.h **** {
 1315              		.loc 2 191 30 view .LVU418
 1316              	.LBB149:
 193:Middlewares/Third_Party/FreeRTOS/Source/portable/GCC/ARM_CM4F/portmacro.h **** 
 1317              		.loc 2 193 1 view .LVU419
 195:Middlewares/Third_Party/FreeRTOS/Source/portable/GCC/ARM_CM4F/portmacro.h **** 	(
 1318              		.loc 2 195 2 view .LVU420
 1319              		.syntax unified
 1320              	@ 195 "Middlewares/Third_Party/FreeRTOS/Source/portable/GCC/ARM_CM4F/portmacro.h" 1
 1321 0020 4FF05003 			mov r3, #80												
 1322 0024 83F31188 		msr basepri, r3											
 1323 0028 BFF36F8F 		isb														
 1324 002c BFF34F8F 		dsb														
 1325              	
 1326              	@ 0 "" 2
 1327              	.LVL99:
 1328              		.thumb
 1329              		.syntax unified
 1330              	.L103:
 195:Middlewares/Third_Party/FreeRTOS/Source/portable/GCC/ARM_CM4F/portmacro.h **** 	(
 1331              		.loc 2 195 2 is_stmt 0 view .LVU421
 1332              	.LBE149:
 1333              	.LBE148:
 199:Middlewares/Third_Party/FreeRTOS/Source/event_groups.c **** 	#if ( ( INCLUDE_xTaskGetSchedulerState == 1 ) || ( configUSE_TIMERS == 1 ) )
 1334              		.loc 1 199 2 is_stmt 1 discriminator 2 view .LVU422
 199:Middlewares/Third_Party/FreeRTOS/Source/event_groups.c **** 	#if ( ( INCLUDE_xTaskGetSchedulerState == 1 ) || ( configUSE_TIMERS == 1 ) )
 1335              		.loc 1 199 2 discriminator 2 view .LVU423
 199:Middlewares/Third_Party/FreeRTOS/Source/event_groups.c **** 	#if ( ( INCLUDE_xTaskGetSchedulerState == 1 ) || ( configUSE_TIMERS == 1 ) )
 1336              		.loc 1 199 2 discriminator 2 view .LVU424
 199:Middlewares/Third_Party/FreeRTOS/Source/event_groups.c **** 	#if ( ( INCLUDE_xTaskGetSchedulerState == 1 ) || ( configUSE_TIMERS == 1 ) )
 1337              		.loc 1 199 2 discriminator 2 view .LVU425
ARM GAS  C:\Users\Simon\AppData\Local\Temp\cckaAEQd.s 			page 47


 1338 0030 FEE7     		b	.L103
 1339              	.LVL100:
 1340              	.L102:
 199:Middlewares/Third_Party/FreeRTOS/Source/event_groups.c **** 	#if ( ( INCLUDE_xTaskGetSchedulerState == 1 ) || ( configUSE_TIMERS == 1 ) )
 1341              		.loc 1 199 38 discriminator 2 view .LVU426
 202:Middlewares/Third_Party/FreeRTOS/Source/event_groups.c **** 	}
 1342              		.loc 1 202 3 discriminator 2 view .LVU427
 1343 0032 0746     		mov	r7, r0
 1344 0034 0E46     		mov	r6, r1
 1345 0036 1D46     		mov	r5, r3
 1346 0038 FFF7FEFF 		bl	xTaskGetSchedulerState
 1347              	.LVL101:
 202:Middlewares/Third_Party/FreeRTOS/Source/event_groups.c **** 	}
 1348              		.loc 1 202 3 is_stmt 0 discriminator 2 view .LVU428
 1349 003c E0B9     		cbnz	r0, .L104
 202:Middlewares/Third_Party/FreeRTOS/Source/event_groups.c **** 	}
 1350              		.loc 1 202 3 discriminator 2 view .LVU429
 1351 003e 45B1     		cbz	r5, .L105
 202:Middlewares/Third_Party/FreeRTOS/Source/event_groups.c **** 	}
 1352              		.loc 1 202 3 is_stmt 1 view .LVU430
 1353              	.LBB150:
 1354              	.LBI150:
 191:Middlewares/Third_Party/FreeRTOS/Source/portable/GCC/ARM_CM4F/portmacro.h **** {
 1355              		.loc 2 191 30 view .LVU431
 1356              	.LBB151:
 193:Middlewares/Third_Party/FreeRTOS/Source/portable/GCC/ARM_CM4F/portmacro.h **** 
 1357              		.loc 2 193 1 view .LVU432
 195:Middlewares/Third_Party/FreeRTOS/Source/portable/GCC/ARM_CM4F/portmacro.h **** 	(
 1358              		.loc 2 195 2 view .LVU433
 1359              		.syntax unified
 1360              	@ 195 "Middlewares/Third_Party/FreeRTOS/Source/portable/GCC/ARM_CM4F/portmacro.h" 1
 1361 0040 4FF05003 			mov r3, #80												
 1362 0044 83F31188 		msr basepri, r3											
 1363 0048 BFF36F8F 		isb														
 1364 004c BFF34F8F 		dsb														
 1365              	
 1366              	@ 0 "" 2
 1367              	.LVL102:
 1368              		.thumb
 1369              		.syntax unified
 1370              	.L106:
 195:Middlewares/Third_Party/FreeRTOS/Source/portable/GCC/ARM_CM4F/portmacro.h **** 	(
 1371              		.loc 2 195 2 is_stmt 0 view .LVU434
 1372              	.LBE151:
 1373              	.LBE150:
 202:Middlewares/Third_Party/FreeRTOS/Source/event_groups.c **** 	}
 1374              		.loc 1 202 3 is_stmt 1 discriminator 3 view .LVU435
 202:Middlewares/Third_Party/FreeRTOS/Source/event_groups.c **** 	}
 1375              		.loc 1 202 3 discriminator 3 view .LVU436
 202:Middlewares/Third_Party/FreeRTOS/Source/event_groups.c **** 	}
 1376              		.loc 1 202 3 discriminator 3 view .LVU437
 202:Middlewares/Third_Party/FreeRTOS/Source/event_groups.c **** 	}
 1377              		.loc 1 202 3 discriminator 3 view .LVU438
 1378 0050 FEE7     		b	.L106
 1379              	.L105:
 202:Middlewares/Third_Party/FreeRTOS/Source/event_groups.c **** 	}
 1380              		.loc 1 202 104 view .LVU439
ARM GAS  C:\Users\Simon\AppData\Local\Temp\cckaAEQd.s 			page 48


 206:Middlewares/Third_Party/FreeRTOS/Source/event_groups.c **** 	{
 1381              		.loc 1 206 2 view .LVU440
 1382 0052 FFF7FEFF 		bl	vTaskSuspendAll
 1383              	.LVL103:
 208:Middlewares/Third_Party/FreeRTOS/Source/event_groups.c **** 
 1384              		.loc 1 208 3 view .LVU441
 208:Middlewares/Third_Party/FreeRTOS/Source/event_groups.c **** 
 1385              		.loc 1 208 22 is_stmt 0 view .LVU442
 1386 0056 3B68     		ldr	r3, [r7]
 1387              	.LVL104:
 210:Middlewares/Third_Party/FreeRTOS/Source/event_groups.c **** 
 1388              		.loc 1 210 3 is_stmt 1 view .LVU443
 210:Middlewares/Third_Party/FreeRTOS/Source/event_groups.c **** 
 1389              		.loc 1 210 12 is_stmt 0 view .LVU444
 1390 0058 3146     		mov	r1, r6
 1391 005a 3846     		mov	r0, r7
 212:Middlewares/Third_Party/FreeRTOS/Source/event_groups.c **** 		{
 1392              		.loc 1 212 30 view .LVU445
 1393 005c 46EA0308 		orr	r8, r6, r3
 210:Middlewares/Third_Party/FreeRTOS/Source/event_groups.c **** 
 1394              		.loc 1 210 12 view .LVU446
 1395 0060 FFF7FEFF 		bl	xEventGroupSetBits
 1396              	.LVL105:
 212:Middlewares/Third_Party/FreeRTOS/Source/event_groups.c **** 		{
 1397              		.loc 1 212 3 is_stmt 1 view .LVU447
 212:Middlewares/Third_Party/FreeRTOS/Source/event_groups.c **** 		{
 1398              		.loc 1 212 5 is_stmt 0 view .LVU448
 1399 0064 34EA0803 		bics	r3, r4, r8
 1400 0068 2FD0     		beq	.L114
 1401              	.L109:
 244:Middlewares/Third_Party/FreeRTOS/Source/event_groups.c **** 				xTimeoutOccurred = pdTRUE;
 1402              		.loc 1 244 5 is_stmt 1 view .LVU449
 244:Middlewares/Third_Party/FreeRTOS/Source/event_groups.c **** 				xTimeoutOccurred = pdTRUE;
 1403              		.loc 1 244 14 is_stmt 0 view .LVU450
 1404 006a D7F80080 		ldr	r8, [r7]
 1405              	.LVL106:
 245:Middlewares/Third_Party/FreeRTOS/Source/event_groups.c **** 			}
 1406              		.loc 1 245 5 is_stmt 1 view .LVU451
 249:Middlewares/Third_Party/FreeRTOS/Source/event_groups.c **** 
 1407              		.loc 1 249 2 view .LVU452
 249:Middlewares/Third_Party/FreeRTOS/Source/event_groups.c **** 
 1408              		.loc 1 249 20 is_stmt 0 view .LVU453
 1409 006e FFF7FEFF 		bl	xTaskResumeAll
 1410              	.LVL107:
 251:Middlewares/Third_Party/FreeRTOS/Source/event_groups.c **** 	{
 1411              		.loc 1 251 2 is_stmt 1 view .LVU454
 1412              	.L99:
 308:Middlewares/Third_Party/FreeRTOS/Source/event_groups.c **** /*-----------------------------------------------------------*/
 1413              		.loc 1 308 1 is_stmt 0 view .LVU455
 1414 0072 4046     		mov	r0, r8
 1415 0074 BDE8F081 		pop	{r4, r5, r6, r7, r8, pc}
 1416              	.LVL108:
 1417              	.L104:
 202:Middlewares/Third_Party/FreeRTOS/Source/event_groups.c **** 	}
 1418              		.loc 1 202 104 is_stmt 1 discriminator 8 view .LVU456
 206:Middlewares/Third_Party/FreeRTOS/Source/event_groups.c **** 	{
 1419              		.loc 1 206 2 discriminator 8 view .LVU457
ARM GAS  C:\Users\Simon\AppData\Local\Temp\cckaAEQd.s 			page 49


 1420 0078 FFF7FEFF 		bl	vTaskSuspendAll
 1421              	.LVL109:
 208:Middlewares/Third_Party/FreeRTOS/Source/event_groups.c **** 
 1422              		.loc 1 208 3 discriminator 8 view .LVU458
 208:Middlewares/Third_Party/FreeRTOS/Source/event_groups.c **** 
 1423              		.loc 1 208 22 is_stmt 0 discriminator 8 view .LVU459
 1424 007c 3B68     		ldr	r3, [r7]
 1425              	.LVL110:
 210:Middlewares/Third_Party/FreeRTOS/Source/event_groups.c **** 
 1426              		.loc 1 210 3 is_stmt 1 discriminator 8 view .LVU460
 210:Middlewares/Third_Party/FreeRTOS/Source/event_groups.c **** 
 1427              		.loc 1 210 12 is_stmt 0 discriminator 8 view .LVU461
 1428 007e 3146     		mov	r1, r6
 1429 0080 3846     		mov	r0, r7
 212:Middlewares/Third_Party/FreeRTOS/Source/event_groups.c **** 		{
 1430              		.loc 1 212 30 discriminator 8 view .LVU462
 1431 0082 43EA0608 		orr	r8, r3, r6
 210:Middlewares/Third_Party/FreeRTOS/Source/event_groups.c **** 
 1432              		.loc 1 210 12 discriminator 8 view .LVU463
 1433 0086 FFF7FEFF 		bl	xEventGroupSetBits
 1434              	.LVL111:
 212:Middlewares/Third_Party/FreeRTOS/Source/event_groups.c **** 		{
 1435              		.loc 1 212 3 is_stmt 1 discriminator 8 view .LVU464
 212:Middlewares/Third_Party/FreeRTOS/Source/event_groups.c **** 		{
 1436              		.loc 1 212 5 is_stmt 0 discriminator 8 view .LVU465
 1437 008a 34EA0803 		bics	r3, r4, r8
 1438 008e 1CD0     		beq	.L114
 225:Middlewares/Third_Party/FreeRTOS/Source/event_groups.c **** 			{
 1439              		.loc 1 225 4 is_stmt 1 view .LVU466
 225:Middlewares/Third_Party/FreeRTOS/Source/event_groups.c **** 			{
 1440              		.loc 1 225 6 is_stmt 0 view .LVU467
 1441 0090 002D     		cmp	r5, #0
 1442 0092 EAD0     		beq	.L109
 227:Middlewares/Third_Party/FreeRTOS/Source/event_groups.c **** 
 1443              		.loc 1 227 77 is_stmt 1 view .LVU468
 232:Middlewares/Third_Party/FreeRTOS/Source/event_groups.c **** 
 1444              		.loc 1 232 5 view .LVU469
 1445 0094 2A46     		mov	r2, r5
 1446 0096 44F0A061 		orr	r1, r4, #83886080
 1447 009a 381D     		adds	r0, r7, #4
 1448 009c FFF7FEFF 		bl	vTaskPlaceOnUnorderedEventList
 1449              	.LVL112:
 238:Middlewares/Third_Party/FreeRTOS/Source/event_groups.c **** 			}
 1450              		.loc 1 238 5 view .LVU470
 249:Middlewares/Third_Party/FreeRTOS/Source/event_groups.c **** 
 1451              		.loc 1 249 2 view .LVU471
 249:Middlewares/Third_Party/FreeRTOS/Source/event_groups.c **** 
 1452              		.loc 1 249 20 is_stmt 0 view .LVU472
 1453 00a0 FFF7FEFF 		bl	xTaskResumeAll
 1454              	.LVL113:
 251:Middlewares/Third_Party/FreeRTOS/Source/event_groups.c **** 	{
 1455              		.loc 1 251 2 is_stmt 1 view .LVU473
 253:Middlewares/Third_Party/FreeRTOS/Source/event_groups.c **** 		{
 1456              		.loc 1 253 3 view .LVU474
 253:Middlewares/Third_Party/FreeRTOS/Source/event_groups.c **** 		{
 1457              		.loc 1 253 5 is_stmt 0 view .LVU475
 1458 00a4 48B9     		cbnz	r0, .L111
ARM GAS  C:\Users\Simon\AppData\Local\Temp\cckaAEQd.s 			page 50


 255:Middlewares/Third_Party/FreeRTOS/Source/event_groups.c **** 		}
 1459              		.loc 1 255 4 is_stmt 1 view .LVU476
 1460 00a6 4FF0E023 		mov	r3, #-536813568
 1461 00aa 4FF08052 		mov	r2, #268435456
 1462 00ae C3F8042D 		str	r2, [r3, #3332]
 255:Middlewares/Third_Party/FreeRTOS/Source/event_groups.c **** 		}
 1463              		.loc 1 255 4 view .LVU477
 1464              		.syntax unified
 1465              	@ 255 "Middlewares/Third_Party/FreeRTOS/Source/event_groups.c" 1
 1466 00b2 BFF34F8F 		dsb
 1467              	@ 0 "" 2
 255:Middlewares/Third_Party/FreeRTOS/Source/event_groups.c **** 		}
 1468              		.loc 1 255 4 view .LVU478
 1469              	@ 255 "Middlewares/Third_Party/FreeRTOS/Source/event_groups.c" 1
 1470 00b6 BFF36F8F 		isb
 1471              	@ 0 "" 2
 255:Middlewares/Third_Party/FreeRTOS/Source/event_groups.c **** 		}
 1472              		.loc 1 255 26 view .LVU479
 1473              		.thumb
 1474              		.syntax unified
 1475              	.L111:
 259:Middlewares/Third_Party/FreeRTOS/Source/event_groups.c **** 		}
 1476              		.loc 1 259 28 view .LVU480
 266:Middlewares/Third_Party/FreeRTOS/Source/event_groups.c **** 
 1477              		.loc 1 266 3 view .LVU481
 266:Middlewares/Third_Party/FreeRTOS/Source/event_groups.c **** 
 1478              		.loc 1 266 14 is_stmt 0 view .LVU482
 1479 00ba FFF7FEFF 		bl	uxTaskResetEventItemValue
 1480              	.LVL114:
 268:Middlewares/Third_Party/FreeRTOS/Source/event_groups.c **** 		{
 1481              		.loc 1 268 5 view .LVU483
 1482 00be 8301     		lsls	r3, r0, #6
 266:Middlewares/Third_Party/FreeRTOS/Source/event_groups.c **** 
 1483              		.loc 1 266 14 view .LVU484
 1484 00c0 0546     		mov	r5, r0
 1485              	.LVL115:
 268:Middlewares/Third_Party/FreeRTOS/Source/event_groups.c **** 		{
 1486              		.loc 1 268 3 is_stmt 1 view .LVU485
 268:Middlewares/Third_Party/FreeRTOS/Source/event_groups.c **** 		{
 1487              		.loc 1 268 5 is_stmt 0 view .LVU486
 1488 00c2 09D5     		bpl	.L120
 1489              	.LVL116:
 1490              	.L112:
 295:Middlewares/Third_Party/FreeRTOS/Source/event_groups.c **** 
 1491              		.loc 1 295 3 is_stmt 1 view .LVU487
 299:Middlewares/Third_Party/FreeRTOS/Source/event_groups.c **** 	}
 1492              		.loc 1 299 3 view .LVU488
 299:Middlewares/Third_Party/FreeRTOS/Source/event_groups.c **** 	}
 1493              		.loc 1 299 12 is_stmt 0 view .LVU489
 1494 00c4 25F07F48 		bic	r8, r5, #-16777216
 1495              	.LVL117:
 302:Middlewares/Third_Party/FreeRTOS/Source/event_groups.c **** 
 1496              		.loc 1 302 2 is_stmt 1 view .LVU490
 305:Middlewares/Third_Party/FreeRTOS/Source/event_groups.c **** 
 1497              		.loc 1 305 2 view .LVU491
 307:Middlewares/Third_Party/FreeRTOS/Source/event_groups.c **** }
 1498              		.loc 1 307 2 view .LVU492
ARM GAS  C:\Users\Simon\AppData\Local\Temp\cckaAEQd.s 			page 51


 307:Middlewares/Third_Party/FreeRTOS/Source/event_groups.c **** }
 1499              		.loc 1 307 9 is_stmt 0 view .LVU493
 1500 00c8 D3E7     		b	.L99
 1501              	.LVL118:
 1502              	.L114:
 215:Middlewares/Third_Party/FreeRTOS/Source/event_groups.c **** 
 1503              		.loc 1 215 4 is_stmt 1 view .LVU494
 219:Middlewares/Third_Party/FreeRTOS/Source/event_groups.c **** 
 1504              		.loc 1 219 4 view .LVU495
 219:Middlewares/Third_Party/FreeRTOS/Source/event_groups.c **** 
 1505              		.loc 1 219 29 is_stmt 0 view .LVU496
 1506 00ca 3B68     		ldr	r3, [r7]
 1507 00cc 23EA0403 		bic	r3, r3, r4
 1508 00d0 3B60     		str	r3, [r7]
 221:Middlewares/Third_Party/FreeRTOS/Source/event_groups.c **** 		}
 1509              		.loc 1 221 4 is_stmt 1 view .LVU497
 1510              	.LVL119:
 249:Middlewares/Third_Party/FreeRTOS/Source/event_groups.c **** 
 1511              		.loc 1 249 2 view .LVU498
 249:Middlewares/Third_Party/FreeRTOS/Source/event_groups.c **** 
 1512              		.loc 1 249 20 is_stmt 0 view .LVU499
 1513 00d2 FFF7FEFF 		bl	xTaskResumeAll
 1514              	.LVL120:
 251:Middlewares/Third_Party/FreeRTOS/Source/event_groups.c **** 	{
 1515              		.loc 1 251 2 is_stmt 1 view .LVU500
 1516 00d6 CCE7     		b	.L99
 1517              	.LVL121:
 1518              	.L120:
 271:Middlewares/Third_Party/FreeRTOS/Source/event_groups.c **** 			{
 1519              		.loc 1 271 4 view .LVU501
 1520 00d8 FFF7FEFF 		bl	vPortEnterCritical
 1521              	.LVL122:
 273:Middlewares/Third_Party/FreeRTOS/Source/event_groups.c **** 
 1522              		.loc 1 273 5 view .LVU502
 273:Middlewares/Third_Party/FreeRTOS/Source/event_groups.c **** 
 1523              		.loc 1 273 14 is_stmt 0 view .LVU503
 1524 00dc 3D68     		ldr	r5, [r7]
 1525              	.LVL123:
 279:Middlewares/Third_Party/FreeRTOS/Source/event_groups.c **** 				{
 1526              		.loc 1 279 5 is_stmt 1 view .LVU504
 279:Middlewares/Third_Party/FreeRTOS/Source/event_groups.c **** 				{
 1527              		.loc 1 279 7 is_stmt 0 view .LVU505
 1528 00de 34EA0503 		bics	r3, r4, r5
 1529 00e2 02D1     		bne	.L113
 281:Middlewares/Third_Party/FreeRTOS/Source/event_groups.c **** 				}
 1530              		.loc 1 281 6 is_stmt 1 view .LVU506
 281:Middlewares/Third_Party/FreeRTOS/Source/event_groups.c **** 				}
 1531              		.loc 1 281 31 is_stmt 0 view .LVU507
 1532 00e4 25EA0404 		bic	r4, r5, r4
 1533              	.LVL124:
 281:Middlewares/Third_Party/FreeRTOS/Source/event_groups.c **** 				}
 1534              		.loc 1 281 31 view .LVU508
 1535 00e8 3C60     		str	r4, [r7]
 1536              	.L113:
 285:Middlewares/Third_Party/FreeRTOS/Source/event_groups.c **** 				}
 1537              		.loc 1 285 30 is_stmt 1 view .LVU509
 288:Middlewares/Third_Party/FreeRTOS/Source/event_groups.c **** 
ARM GAS  C:\Users\Simon\AppData\Local\Temp\cckaAEQd.s 			page 52


 1538              		.loc 1 288 4 view .LVU510
 1539 00ea FFF7FEFF 		bl	vPortExitCritical
 1540              	.LVL125:
 290:Middlewares/Third_Party/FreeRTOS/Source/event_groups.c **** 		}
 1541              		.loc 1 290 4 view .LVU511
 290:Middlewares/Third_Party/FreeRTOS/Source/event_groups.c **** 		}
 1542              		.loc 1 290 4 is_stmt 0 view .LVU512
 1543 00ee E9E7     		b	.L112
 1544              		.cfi_endproc
 1545              	.LFE6:
 1547              		.section	.text.vEventGroupSetBitsCallback,"ax",%progbits
 1548              		.align	1
 1549              		.p2align 2,,3
 1550              		.global	vEventGroupSetBitsCallback
 1551              		.syntax unified
 1552              		.thumb
 1553              		.thumb_func
 1555              	vEventGroupSetBitsCallback:
 1556              	.LVL126:
 1557              	.LFB13:
 658:Middlewares/Third_Party/FreeRTOS/Source/event_groups.c **** 	( void ) xEventGroupSetBits( pvEventGroup, ( EventBits_t ) ulBitsToSet ); /*lint !e9079 Can't avoi
 1558              		.loc 1 658 1 is_stmt 1 view -0
 1559              		.cfi_startproc
 1560              		@ args = 0, pretend = 0, frame = 0
 1561              		@ frame_needed = 0, uses_anonymous_args = 0
 1562              		@ link register save eliminated.
 659:Middlewares/Third_Party/FreeRTOS/Source/event_groups.c **** }
 1563              		.loc 1 659 2 view .LVU514
 659:Middlewares/Third_Party/FreeRTOS/Source/event_groups.c **** }
 1564              		.loc 1 659 11 is_stmt 0 view .LVU515
 1565 0000 FFF7FEBF 		b	xEventGroupSetBits
 1566              	.LVL127:
 659:Middlewares/Third_Party/FreeRTOS/Source/event_groups.c **** }
 1567              		.loc 1 659 11 view .LVU516
 1568              		.cfi_endproc
 1569              	.LFE13:
 1571              		.section	.text.vEventGroupDelete,"ax",%progbits
 1572              		.align	1
 1573              		.p2align 2,,3
 1574              		.global	vEventGroupDelete
 1575              		.syntax unified
 1576              		.thumb
 1577              		.thumb_func
 1579              	vEventGroupDelete:
 1580              	.LVL128:
 1581              	.LFB12:
 614:Middlewares/Third_Party/FreeRTOS/Source/event_groups.c **** EventGroup_t *pxEventBits = xEventGroup;
 1582              		.loc 1 614 1 is_stmt 1 view -0
 1583              		.cfi_startproc
 1584              		@ args = 0, pretend = 0, frame = 0
 1585              		@ frame_needed = 0, uses_anonymous_args = 0
 615:Middlewares/Third_Party/FreeRTOS/Source/event_groups.c **** const List_t *pxTasksWaitingForBits = &( pxEventBits->xTasksWaitingForBits );
 1586              		.loc 1 615 1 view .LVU518
 614:Middlewares/Third_Party/FreeRTOS/Source/event_groups.c **** EventGroup_t *pxEventBits = xEventGroup;
 1587              		.loc 1 614 1 is_stmt 0 view .LVU519
 1588 0000 38B5     		push	{r3, r4, r5, lr}
 1589              	.LCFI17:
ARM GAS  C:\Users\Simon\AppData\Local\Temp\cckaAEQd.s 			page 53


 1590              		.cfi_def_cfa_offset 16
 1591              		.cfi_offset 3, -16
 1592              		.cfi_offset 4, -12
 1593              		.cfi_offset 5, -8
 1594              		.cfi_offset 14, -4
 614:Middlewares/Third_Party/FreeRTOS/Source/event_groups.c **** EventGroup_t *pxEventBits = xEventGroup;
 1595              		.loc 1 614 1 view .LVU520
 1596 0002 0446     		mov	r4, r0
 1597              	.LVL129:
 616:Middlewares/Third_Party/FreeRTOS/Source/event_groups.c **** 
 1598              		.loc 1 616 1 is_stmt 1 view .LVU521
 618:Middlewares/Third_Party/FreeRTOS/Source/event_groups.c **** 	{
 1599              		.loc 1 618 2 view .LVU522
 1600 0004 FFF7FEFF 		bl	vTaskSuspendAll
 1601              	.LVL130:
 620:Middlewares/Third_Party/FreeRTOS/Source/event_groups.c **** 
 1602              		.loc 1 620 41 view .LVU523
 622:Middlewares/Third_Party/FreeRTOS/Source/event_groups.c **** 		{
 1603              		.loc 1 622 3 view .LVU524
 622:Middlewares/Third_Party/FreeRTOS/Source/event_groups.c **** 		{
 1604              		.loc 1 622 59 view .LVU525
 622:Middlewares/Third_Party/FreeRTOS/Source/event_groups.c **** 		{
 1605              		.loc 1 622 10 is_stmt 0 view .LVU526
 1606 0008 6368     		ldr	r3, [r4, #4]
 622:Middlewares/Third_Party/FreeRTOS/Source/event_groups.c **** 		{
 1607              		.loc 1 622 59 view .LVU527
 1608 000a A3B1     		cbz	r3, .L129
 626:Middlewares/Third_Party/FreeRTOS/Source/event_groups.c **** 			vTaskRemoveFromUnorderedEventList( pxTasksWaitingForBits->xListEnd.pxNext, eventUNBLOCKED_DUE_TO
 1609              		.loc 1 626 4 view .LVU528
 1610 000c 04F10C05 		add	r5, r4, #12
 1611 0010 03E0     		b	.L128
 1612              	.L126:
 627:Middlewares/Third_Party/FreeRTOS/Source/event_groups.c **** 		}
 1613              		.loc 1 627 4 discriminator 2 view .LVU529
 1614 0012 FFF7FEFF 		bl	vTaskRemoveFromUnorderedEventList
 1615              	.LVL131:
 622:Middlewares/Third_Party/FreeRTOS/Source/event_groups.c **** 		{
 1616              		.loc 1 622 59 is_stmt 1 discriminator 2 view .LVU530
 622:Middlewares/Third_Party/FreeRTOS/Source/event_groups.c **** 		{
 1617              		.loc 1 622 10 is_stmt 0 discriminator 2 view .LVU531
 1618 0016 6368     		ldr	r3, [r4, #4]
 622:Middlewares/Third_Party/FreeRTOS/Source/event_groups.c **** 		{
 1619              		.loc 1 622 59 discriminator 2 view .LVU532
 1620 0018 6BB1     		cbz	r3, .L129
 1621              	.L128:
 626:Middlewares/Third_Party/FreeRTOS/Source/event_groups.c **** 			vTaskRemoveFromUnorderedEventList( pxTasksWaitingForBits->xListEnd.pxNext, eventUNBLOCKED_DUE_TO
 1622              		.loc 1 626 4 is_stmt 1 view .LVU533
 626:Middlewares/Third_Party/FreeRTOS/Source/event_groups.c **** 			vTaskRemoveFromUnorderedEventList( pxTasksWaitingForBits->xListEnd.pxNext, eventUNBLOCKED_DUE_TO
 1623              		.loc 1 626 121 view .LVU534
 627:Middlewares/Third_Party/FreeRTOS/Source/event_groups.c **** 		}
 1624              		.loc 1 627 4 view .LVU535
 626:Middlewares/Third_Party/FreeRTOS/Source/event_groups.c **** 			vTaskRemoveFromUnorderedEventList( pxTasksWaitingForBits->xListEnd.pxNext, eventUNBLOCKED_DUE_TO
 1625              		.loc 1 626 4 is_stmt 0 view .LVU536
 1626 001a 2069     		ldr	r0, [r4, #16]
 627:Middlewares/Third_Party/FreeRTOS/Source/event_groups.c **** 		}
 1627              		.loc 1 627 4 view .LVU537
 1628 001c 4FF00071 		mov	r1, #33554432
ARM GAS  C:\Users\Simon\AppData\Local\Temp\cckaAEQd.s 			page 54


 626:Middlewares/Third_Party/FreeRTOS/Source/event_groups.c **** 			vTaskRemoveFromUnorderedEventList( pxTasksWaitingForBits->xListEnd.pxNext, eventUNBLOCKED_DUE_TO
 1629              		.loc 1 626 4 view .LVU538
 1630 0020 A842     		cmp	r0, r5
 1631 0022 F6D1     		bne	.L126
 626:Middlewares/Third_Party/FreeRTOS/Source/event_groups.c **** 			vTaskRemoveFromUnorderedEventList( pxTasksWaitingForBits->xListEnd.pxNext, eventUNBLOCKED_DUE_TO
 1632              		.loc 1 626 4 is_stmt 1 view .LVU539
 1633              	.LBB152:
 1634              	.LBI152:
 191:Middlewares/Third_Party/FreeRTOS/Source/portable/GCC/ARM_CM4F/portmacro.h **** {
 1635              		.loc 2 191 30 view .LVU540
 1636              	.LBB153:
 193:Middlewares/Third_Party/FreeRTOS/Source/portable/GCC/ARM_CM4F/portmacro.h **** 
 1637              		.loc 2 193 1 view .LVU541
 195:Middlewares/Third_Party/FreeRTOS/Source/portable/GCC/ARM_CM4F/portmacro.h **** 	(
 1638              		.loc 2 195 2 view .LVU542
 1639              		.syntax unified
 1640              	@ 195 "Middlewares/Third_Party/FreeRTOS/Source/portable/GCC/ARM_CM4F/portmacro.h" 1
 1641 0024 4FF05003 			mov r3, #80												
 1642 0028 83F31188 		msr basepri, r3											
 1643 002c BFF36F8F 		isb														
 1644 0030 BFF34F8F 		dsb														
 1645              	
 1646              	@ 0 "" 2
 1647              	.LVL132:
 1648              		.thumb
 1649              		.syntax unified
 1650              	.L127:
 195:Middlewares/Third_Party/FreeRTOS/Source/portable/GCC/ARM_CM4F/portmacro.h **** 	(
 1651              		.loc 2 195 2 is_stmt 0 view .LVU543
 1652              	.LBE153:
 1653              	.LBE152:
 626:Middlewares/Third_Party/FreeRTOS/Source/event_groups.c **** 			vTaskRemoveFromUnorderedEventList( pxTasksWaitingForBits->xListEnd.pxNext, eventUNBLOCKED_DUE_TO
 1654              		.loc 1 626 4 is_stmt 1 discriminator 1 view .LVU544
 626:Middlewares/Third_Party/FreeRTOS/Source/event_groups.c **** 			vTaskRemoveFromUnorderedEventList( pxTasksWaitingForBits->xListEnd.pxNext, eventUNBLOCKED_DUE_TO
 1655              		.loc 1 626 4 discriminator 1 view .LVU545
 626:Middlewares/Third_Party/FreeRTOS/Source/event_groups.c **** 			vTaskRemoveFromUnorderedEventList( pxTasksWaitingForBits->xListEnd.pxNext, eventUNBLOCKED_DUE_TO
 1656              		.loc 1 626 4 discriminator 1 view .LVU546
 626:Middlewares/Third_Party/FreeRTOS/Source/event_groups.c **** 			vTaskRemoveFromUnorderedEventList( pxTasksWaitingForBits->xListEnd.pxNext, eventUNBLOCKED_DUE_TO
 1657              		.loc 1 626 4 discriminator 1 view .LVU547
 1658 0034 FEE7     		b	.L127
 1659              	.L129:
 640:Middlewares/Third_Party/FreeRTOS/Source/event_groups.c **** 			{
 1660              		.loc 1 640 4 view .LVU548
 640:Middlewares/Third_Party/FreeRTOS/Source/event_groups.c **** 			{
 1661              		.loc 1 640 6 is_stmt 0 view .LVU549
 1662 0036 237F     		ldrb	r3, [r4, #28]	@ zero_extendqisi2
 1663 0038 1BB1     		cbz	r3, .L132
 646:Middlewares/Third_Party/FreeRTOS/Source/event_groups.c **** 			}
 1664              		.loc 1 646 29 is_stmt 1 view .LVU550
 651:Middlewares/Third_Party/FreeRTOS/Source/event_groups.c **** }
 1665              		.loc 1 651 2 view .LVU551
 652:Middlewares/Third_Party/FreeRTOS/Source/event_groups.c **** /*-----------------------------------------------------------*/
 1666              		.loc 1 652 1 is_stmt 0 view .LVU552
 1667 003a BDE83840 		pop	{r3, r4, r5, lr}
 1668              	.LCFI18:
 1669              		.cfi_remember_state
 1670              		.cfi_restore 14
ARM GAS  C:\Users\Simon\AppData\Local\Temp\cckaAEQd.s 			page 55


 1671              		.cfi_restore 5
 1672              		.cfi_restore 4
 1673              		.cfi_restore 3
 1674              		.cfi_def_cfa_offset 0
 1675              	.LVL133:
 651:Middlewares/Third_Party/FreeRTOS/Source/event_groups.c **** }
 1676              		.loc 1 651 11 view .LVU553
 1677 003e FFF7FEBF 		b	xTaskResumeAll
 1678              	.LVL134:
 1679              	.L132:
 1680              	.LCFI19:
 1681              		.cfi_restore_state
 642:Middlewares/Third_Party/FreeRTOS/Source/event_groups.c **** 			}
 1682              		.loc 1 642 5 is_stmt 1 view .LVU554
 1683 0042 2046     		mov	r0, r4
 1684 0044 FFF7FEFF 		bl	vPortFree
 1685              	.LVL135:
 646:Middlewares/Third_Party/FreeRTOS/Source/event_groups.c **** 			}
 1686              		.loc 1 646 29 view .LVU555
 651:Middlewares/Third_Party/FreeRTOS/Source/event_groups.c **** }
 1687              		.loc 1 651 2 view .LVU556
 652:Middlewares/Third_Party/FreeRTOS/Source/event_groups.c **** /*-----------------------------------------------------------*/
 1688              		.loc 1 652 1 is_stmt 0 view .LVU557
 1689 0048 BDE83840 		pop	{r3, r4, r5, lr}
 1690              	.LCFI20:
 1691              		.cfi_restore 14
 1692              		.cfi_restore 5
 1693              		.cfi_restore 4
 1694              		.cfi_restore 3
 1695              		.cfi_def_cfa_offset 0
 1696              	.LVL136:
 651:Middlewares/Third_Party/FreeRTOS/Source/event_groups.c **** }
 1697              		.loc 1 651 11 view .LVU558
 1698 004c FFF7FEBF 		b	xTaskResumeAll
 1699              	.LVL137:
 1700              		.cfi_endproc
 1701              	.LFE12:
 1703              		.section	.text.xEventGroupSetBitsFromISR,"ax",%progbits
 1704              		.align	1
 1705              		.p2align 2,,3
 1706              		.global	xEventGroupSetBitsFromISR
 1707              		.syntax unified
 1708              		.thumb
 1709              		.thumb_func
 1711              	xEventGroupSetBitsFromISR:
 1712              	.LVL138:
 1713              	.LFB16:
 693:Middlewares/Third_Party/FreeRTOS/Source/event_groups.c **** 		{
 694:Middlewares/Third_Party/FreeRTOS/Source/event_groups.c **** 			xWaitConditionMet = pdTRUE;
 695:Middlewares/Third_Party/FreeRTOS/Source/event_groups.c **** 		}
 696:Middlewares/Third_Party/FreeRTOS/Source/event_groups.c **** 		else
 697:Middlewares/Third_Party/FreeRTOS/Source/event_groups.c **** 		{
 698:Middlewares/Third_Party/FreeRTOS/Source/event_groups.c **** 			mtCOVERAGE_TEST_MARKER();
 699:Middlewares/Third_Party/FreeRTOS/Source/event_groups.c **** 		}
 700:Middlewares/Third_Party/FreeRTOS/Source/event_groups.c **** 	}
 701:Middlewares/Third_Party/FreeRTOS/Source/event_groups.c **** 
 702:Middlewares/Third_Party/FreeRTOS/Source/event_groups.c **** 	return xWaitConditionMet;
ARM GAS  C:\Users\Simon\AppData\Local\Temp\cckaAEQd.s 			page 56


 703:Middlewares/Third_Party/FreeRTOS/Source/event_groups.c **** }
 704:Middlewares/Third_Party/FreeRTOS/Source/event_groups.c **** /*-----------------------------------------------------------*/
 705:Middlewares/Third_Party/FreeRTOS/Source/event_groups.c **** 
 706:Middlewares/Third_Party/FreeRTOS/Source/event_groups.c **** #if ( ( configUSE_TRACE_FACILITY == 1 ) && ( INCLUDE_xTimerPendFunctionCall == 1 ) && ( configUSE_T
 707:Middlewares/Third_Party/FreeRTOS/Source/event_groups.c **** 
 708:Middlewares/Third_Party/FreeRTOS/Source/event_groups.c **** 	BaseType_t xEventGroupSetBitsFromISR( EventGroupHandle_t xEventGroup, const EventBits_t uxBitsToSe
 709:Middlewares/Third_Party/FreeRTOS/Source/event_groups.c **** 	{
 1714              		.loc 1 709 2 is_stmt 1 view -0
 1715              		.cfi_startproc
 1716              		@ args = 0, pretend = 0, frame = 0
 1717              		@ frame_needed = 0, uses_anonymous_args = 0
 1718              		@ link register save eliminated.
 710:Middlewares/Third_Party/FreeRTOS/Source/event_groups.c **** 	BaseType_t xReturn;
 1719              		.loc 1 710 2 view .LVU560
 711:Middlewares/Third_Party/FreeRTOS/Source/event_groups.c **** 
 712:Middlewares/Third_Party/FreeRTOS/Source/event_groups.c **** 		traceEVENT_GROUP_SET_BITS_FROM_ISR( xEventGroup, uxBitsToSet );
 1720              		.loc 1 712 65 view .LVU561
 713:Middlewares/Third_Party/FreeRTOS/Source/event_groups.c **** 		xReturn = xTimerPendFunctionCallFromISR( vEventGroupSetBitsCallback, ( void * ) xEventGroup, ( ui
 1721              		.loc 1 713 3 view .LVU562
 709:Middlewares/Third_Party/FreeRTOS/Source/event_groups.c **** 	BaseType_t xReturn;
 1722              		.loc 1 709 2 is_stmt 0 view .LVU563
 1723 0000 8446     		mov	ip, r0
 1724 0002 1346     		mov	r3, r2
 1725              		.loc 1 713 13 view .LVU564
 1726 0004 0248     		ldr	r0, .L134
 1727              	.LVL139:
 1728              		.loc 1 713 13 view .LVU565
 1729 0006 0A46     		mov	r2, r1
 1730              	.LVL140:
 1731              		.loc 1 713 13 view .LVU566
 1732 0008 6146     		mov	r1, ip
 1733              	.LVL141:
 1734              		.loc 1 713 13 view .LVU567
 1735 000a FFF7FEBF 		b	xTimerPendFunctionCallFromISR
 1736              	.LVL142:
 1737              	.L135:
 1738              		.loc 1 713 13 view .LVU568
 1739 000e 00BF     		.align	2
 1740              	.L134:
 1741 0010 00000000 		.word	vEventGroupSetBitsCallback
 1742              		.cfi_endproc
 1743              	.LFE16:
 1745              		.section	.text.uxEventGroupGetNumber,"ax",%progbits
 1746              		.align	1
 1747              		.p2align 2,,3
 1748              		.global	uxEventGroupGetNumber
 1749              		.syntax unified
 1750              		.thumb
 1751              		.thumb_func
 1753              	uxEventGroupGetNumber:
 1754              	.LVL143:
 1755              	.LFB17:
 714:Middlewares/Third_Party/FreeRTOS/Source/event_groups.c **** 
 715:Middlewares/Third_Party/FreeRTOS/Source/event_groups.c **** 		return xReturn;
 716:Middlewares/Third_Party/FreeRTOS/Source/event_groups.c **** 	}
 717:Middlewares/Third_Party/FreeRTOS/Source/event_groups.c **** 
 718:Middlewares/Third_Party/FreeRTOS/Source/event_groups.c **** #endif
ARM GAS  C:\Users\Simon\AppData\Local\Temp\cckaAEQd.s 			page 57


 719:Middlewares/Third_Party/FreeRTOS/Source/event_groups.c **** /*-----------------------------------------------------------*/
 720:Middlewares/Third_Party/FreeRTOS/Source/event_groups.c **** 
 721:Middlewares/Third_Party/FreeRTOS/Source/event_groups.c **** #if (configUSE_TRACE_FACILITY == 1)
 722:Middlewares/Third_Party/FreeRTOS/Source/event_groups.c **** 
 723:Middlewares/Third_Party/FreeRTOS/Source/event_groups.c **** 	UBaseType_t uxEventGroupGetNumber( void* xEventGroup )
 724:Middlewares/Third_Party/FreeRTOS/Source/event_groups.c **** 	{
 1756              		.loc 1 724 2 is_stmt 1 view -0
 1757              		.cfi_startproc
 1758              		@ args = 0, pretend = 0, frame = 0
 1759              		@ frame_needed = 0, uses_anonymous_args = 0
 1760              		@ link register save eliminated.
 725:Middlewares/Third_Party/FreeRTOS/Source/event_groups.c **** 	UBaseType_t xReturn;
 1761              		.loc 1 725 2 view .LVU570
 726:Middlewares/Third_Party/FreeRTOS/Source/event_groups.c **** 	EventGroup_t const *pxEventBits = ( EventGroup_t * ) xEventGroup; /*lint !e9087 !e9079 EventGroupH
 1762              		.loc 1 726 2 view .LVU571
 727:Middlewares/Third_Party/FreeRTOS/Source/event_groups.c **** 
 728:Middlewares/Third_Party/FreeRTOS/Source/event_groups.c **** 		if( xEventGroup == NULL )
 1763              		.loc 1 728 3 view .LVU572
 1764              		.loc 1 728 5 is_stmt 0 view .LVU573
 1765 0000 00B1     		cbz	r0, .L136
 729:Middlewares/Third_Party/FreeRTOS/Source/event_groups.c **** 		{
 730:Middlewares/Third_Party/FreeRTOS/Source/event_groups.c **** 			xReturn = 0;
 731:Middlewares/Third_Party/FreeRTOS/Source/event_groups.c **** 		}
 732:Middlewares/Third_Party/FreeRTOS/Source/event_groups.c **** 		else
 733:Middlewares/Third_Party/FreeRTOS/Source/event_groups.c **** 		{
 734:Middlewares/Third_Party/FreeRTOS/Source/event_groups.c **** 			xReturn = pxEventBits->uxEventGroupNumber;
 1766              		.loc 1 734 4 is_stmt 1 view .LVU574
 1767              		.loc 1 734 12 is_stmt 0 view .LVU575
 1768 0002 8069     		ldr	r0, [r0, #24]
 1769              	.LVL144:
 1770              	.L136:
 735:Middlewares/Third_Party/FreeRTOS/Source/event_groups.c **** 		}
 736:Middlewares/Third_Party/FreeRTOS/Source/event_groups.c **** 
 737:Middlewares/Third_Party/FreeRTOS/Source/event_groups.c **** 		return xReturn;
 738:Middlewares/Third_Party/FreeRTOS/Source/event_groups.c **** 	}
 1771              		.loc 1 738 2 view .LVU576
 1772 0004 7047     		bx	lr
 1773              		.cfi_endproc
 1774              	.LFE17:
 1776 0006 00BF     		.section	.text.vEventGroupSetNumber,"ax",%progbits
 1777              		.align	1
 1778              		.p2align 2,,3
 1779              		.global	vEventGroupSetNumber
 1780              		.syntax unified
 1781              		.thumb
 1782              		.thumb_func
 1784              	vEventGroupSetNumber:
 1785              	.LVL145:
 1786              	.LFB18:
 739:Middlewares/Third_Party/FreeRTOS/Source/event_groups.c **** 
 740:Middlewares/Third_Party/FreeRTOS/Source/event_groups.c **** #endif /* configUSE_TRACE_FACILITY */
 741:Middlewares/Third_Party/FreeRTOS/Source/event_groups.c **** /*-----------------------------------------------------------*/
 742:Middlewares/Third_Party/FreeRTOS/Source/event_groups.c **** 
 743:Middlewares/Third_Party/FreeRTOS/Source/event_groups.c **** #if ( configUSE_TRACE_FACILITY == 1 )
 744:Middlewares/Third_Party/FreeRTOS/Source/event_groups.c **** 
 745:Middlewares/Third_Party/FreeRTOS/Source/event_groups.c **** 	void vEventGroupSetNumber( void * xEventGroup, UBaseType_t uxEventGroupNumber )
 746:Middlewares/Third_Party/FreeRTOS/Source/event_groups.c **** 	{
ARM GAS  C:\Users\Simon\AppData\Local\Temp\cckaAEQd.s 			page 58


 1787              		.loc 1 746 2 is_stmt 1 view -0
 1788              		.cfi_startproc
 1789              		@ args = 0, pretend = 0, frame = 0
 1790              		@ frame_needed = 0, uses_anonymous_args = 0
 1791              		@ link register save eliminated.
 747:Middlewares/Third_Party/FreeRTOS/Source/event_groups.c **** 		( ( EventGroup_t * ) xEventGroup )->uxEventGroupNumber = uxEventGroupNumber; /*lint !e9087 !e9079
 1792              		.loc 1 747 3 view .LVU578
 1793              		.loc 1 747 58 is_stmt 0 view .LVU579
 1794 0000 8161     		str	r1, [r0, #24]
 748:Middlewares/Third_Party/FreeRTOS/Source/event_groups.c **** 	}
 1795              		.loc 1 748 2 view .LVU580
 1796 0002 7047     		bx	lr
 1797              		.cfi_endproc
 1798              	.LFE18:
 1800              		.text
 1801              	.Letext0:
 1802              		.file 3 "c:\\program files (x86)\\arm gnu toolchain arm-none-eabi\\11.2 2022.02\\lib\\gcc\\arm-non
 1803              		.file 4 "c:\\program files (x86)\\arm gnu toolchain arm-none-eabi\\11.2 2022.02\\arm-none-eabi\\in
 1804              		.file 5 "c:\\program files (x86)\\arm gnu toolchain arm-none-eabi\\11.2 2022.02\\arm-none-eabi\\in
 1805              		.file 6 "Middlewares/Third_Party/FreeRTOS/Source/include/FreeRTOS.h"
 1806              		.file 7 "Middlewares/Third_Party/FreeRTOS/Source/include/list.h"
 1807              		.file 8 "Middlewares/Third_Party/FreeRTOS/Source/include/timers.h"
 1808              		.file 9 "Middlewares/Third_Party/FreeRTOS/Source/include/event_groups.h"
 1809              		.file 10 "Middlewares/Third_Party/FreeRTOS/Source/include/portable.h"
 1810              		.file 11 "Middlewares/Third_Party/FreeRTOS/Source/include/task.h"
ARM GAS  C:\Users\Simon\AppData\Local\Temp\cckaAEQd.s 			page 59

