ARM GAS  C:\Users\Simon\AppData\Local\Temp\ccx3lgto.s 			page 1


   1              		.cpu cortex-m7
   2              		.arch armv7e-m
   3              		.fpu fpv5-d16
   4              		.eabi_attribute 28, 1
   5              		.eabi_attribute 20, 1
   6              		.eabi_attribute 21, 1
   7              		.eabi_attribute 23, 3
   8              		.eabi_attribute 24, 1
   9              		.eabi_attribute 25, 1
  10              		.eabi_attribute 26, 1
  11              		.eabi_attribute 30, 1
  12              		.eabi_attribute 34, 1
  13              		.eabi_attribute 18, 4
  14              		.file	"freertos.c"
  15              		.text
  16              	.Ltext0:
  17              		.cfi_sections	.debug_frame
  18              		.section	.text.StartDefaultTask,"ax",%progbits
  19              		.align	1
  20              		.global	StartDefaultTask
  21              		.syntax unified
  22              		.thumb
  23              		.thumb_func
  25              	StartDefaultTask:
  26              	.LFB152:
  27              		.file 1 "Core/Src/freertos.c"
   1:Core/Src/freertos.c **** /* USER CODE BEGIN Header */
   2:Core/Src/freertos.c **** /**
   3:Core/Src/freertos.c ****   ******************************************************************************
   4:Core/Src/freertos.c ****   * File Name          : freertos.c
   5:Core/Src/freertos.c ****   * Description        : Code for freertos applications
   6:Core/Src/freertos.c ****   ******************************************************************************
   7:Core/Src/freertos.c ****   * @attention
   8:Core/Src/freertos.c ****   *
   9:Core/Src/freertos.c ****   * Copyright (c) 2022 STMicroelectronics.
  10:Core/Src/freertos.c ****   * All rights reserved.
  11:Core/Src/freertos.c ****   *
  12:Core/Src/freertos.c ****   * This software is licensed under terms that can be found in the LICENSE file
  13:Core/Src/freertos.c ****   * in the root directory of this software component.
  14:Core/Src/freertos.c ****   * If no LICENSE file comes with this software, it is provided AS-IS.
  15:Core/Src/freertos.c ****   *
  16:Core/Src/freertos.c ****   ******************************************************************************
  17:Core/Src/freertos.c ****   */
  18:Core/Src/freertos.c **** /* USER CODE END Header */
  19:Core/Src/freertos.c **** 
  20:Core/Src/freertos.c **** /* Includes ------------------------------------------------------------------*/
  21:Core/Src/freertos.c **** #include "FreeRTOS.h"
  22:Core/Src/freertos.c **** #include "task.h"
  23:Core/Src/freertos.c **** #include "main.h"
  24:Core/Src/freertos.c **** #include "cmsis_os.h"
  25:Core/Src/freertos.c **** 
  26:Core/Src/freertos.c **** /* Private includes ----------------------------------------------------------*/
  27:Core/Src/freertos.c **** /* USER CODE BEGIN Includes */
  28:Core/Src/freertos.c **** 
  29:Core/Src/freertos.c **** /* USER CODE END Includes */
  30:Core/Src/freertos.c **** 
  31:Core/Src/freertos.c **** /* Private typedef -----------------------------------------------------------*/
ARM GAS  C:\Users\Simon\AppData\Local\Temp\ccx3lgto.s 			page 2


  32:Core/Src/freertos.c **** /* USER CODE BEGIN PTD */
  33:Core/Src/freertos.c **** 
  34:Core/Src/freertos.c **** /* USER CODE END PTD */
  35:Core/Src/freertos.c **** 
  36:Core/Src/freertos.c **** /* Private define ------------------------------------------------------------*/
  37:Core/Src/freertos.c **** /* USER CODE BEGIN PD */
  38:Core/Src/freertos.c **** 
  39:Core/Src/freertos.c **** /* USER CODE END PD */
  40:Core/Src/freertos.c **** 
  41:Core/Src/freertos.c **** /* Private macro -------------------------------------------------------------*/
  42:Core/Src/freertos.c **** /* USER CODE BEGIN PM */
  43:Core/Src/freertos.c **** 
  44:Core/Src/freertos.c **** /* USER CODE END PM */
  45:Core/Src/freertos.c **** 
  46:Core/Src/freertos.c **** /* Private variables ---------------------------------------------------------*/
  47:Core/Src/freertos.c **** /* USER CODE BEGIN Variables */
  48:Core/Src/freertos.c **** 
  49:Core/Src/freertos.c **** /* USER CODE END Variables */
  50:Core/Src/freertos.c **** /* Definitions for defaultTask */
  51:Core/Src/freertos.c **** osThreadId_t defaultTaskHandle;
  52:Core/Src/freertos.c **** const osThreadAttr_t defaultTask_attributes = {
  53:Core/Src/freertos.c ****   .name = "defaultTask",
  54:Core/Src/freertos.c ****   .stack_size = 128 * 4,
  55:Core/Src/freertos.c ****   .priority = (osPriority_t) osPriorityNormal,
  56:Core/Src/freertos.c **** };
  57:Core/Src/freertos.c **** 
  58:Core/Src/freertos.c **** /* Private function prototypes -----------------------------------------------*/
  59:Core/Src/freertos.c **** /* USER CODE BEGIN FunctionPrototypes */
  60:Core/Src/freertos.c **** 
  61:Core/Src/freertos.c **** /* USER CODE END FunctionPrototypes */
  62:Core/Src/freertos.c **** 
  63:Core/Src/freertos.c **** void StartDefaultTask(void *argument);
  64:Core/Src/freertos.c **** 
  65:Core/Src/freertos.c **** void MX_FREERTOS_Init(void); /* (MISRA C 2004 rule 8.1) */
  66:Core/Src/freertos.c **** 
  67:Core/Src/freertos.c **** /* Hook prototypes */
  68:Core/Src/freertos.c **** void configureTimerForRunTimeStats(void);
  69:Core/Src/freertos.c **** unsigned long getRunTimeCounterValue(void);
  70:Core/Src/freertos.c **** void vApplicationStackOverflowHook(xTaskHandle xTask, signed char *pcTaskName);
  71:Core/Src/freertos.c **** 
  72:Core/Src/freertos.c **** /* USER CODE BEGIN 1 */
  73:Core/Src/freertos.c **** /* Functions needed when configGENERATE_RUN_TIME_STATS is on */
  74:Core/Src/freertos.c **** __weak void configureTimerForRunTimeStats(void)
  75:Core/Src/freertos.c **** {
  76:Core/Src/freertos.c **** 
  77:Core/Src/freertos.c **** }
  78:Core/Src/freertos.c **** 
  79:Core/Src/freertos.c **** __weak unsigned long getRunTimeCounterValue(void)
  80:Core/Src/freertos.c **** {
  81:Core/Src/freertos.c **** return 0;
  82:Core/Src/freertos.c **** }
  83:Core/Src/freertos.c **** /* USER CODE END 1 */
  84:Core/Src/freertos.c **** 
  85:Core/Src/freertos.c **** /* USER CODE BEGIN 4 */
  86:Core/Src/freertos.c **** void vApplicationStackOverflowHook(xTaskHandle xTask, signed char *pcTaskName)
  87:Core/Src/freertos.c **** {
  88:Core/Src/freertos.c ****    /* Run time stack overflow checking is performed if
ARM GAS  C:\Users\Simon\AppData\Local\Temp\ccx3lgto.s 			page 3


  89:Core/Src/freertos.c ****    configCHECK_FOR_STACK_OVERFLOW is defined to 1 or 2. This hook function is
  90:Core/Src/freertos.c ****    called if a stack overflow is detected. */
  91:Core/Src/freertos.c **** }
  92:Core/Src/freertos.c **** /* USER CODE END 4 */
  93:Core/Src/freertos.c **** 
  94:Core/Src/freertos.c **** /**
  95:Core/Src/freertos.c ****   * @brief  FreeRTOS initialization
  96:Core/Src/freertos.c ****   * @param  None
  97:Core/Src/freertos.c ****   * @retval None
  98:Core/Src/freertos.c ****   */
  99:Core/Src/freertos.c **** void MX_FREERTOS_Init(void) {
 100:Core/Src/freertos.c ****   /* USER CODE BEGIN Init */
 101:Core/Src/freertos.c **** 
 102:Core/Src/freertos.c ****   /* USER CODE END Init */
 103:Core/Src/freertos.c **** 
 104:Core/Src/freertos.c ****   /* USER CODE BEGIN RTOS_MUTEX */
 105:Core/Src/freertos.c ****   /* add mutexes, ... */
 106:Core/Src/freertos.c ****   /* USER CODE END RTOS_MUTEX */
 107:Core/Src/freertos.c **** 
 108:Core/Src/freertos.c ****   /* USER CODE BEGIN RTOS_SEMAPHORES */
 109:Core/Src/freertos.c ****   /* add semaphores, ... */
 110:Core/Src/freertos.c ****   /* USER CODE END RTOS_SEMAPHORES */
 111:Core/Src/freertos.c **** 
 112:Core/Src/freertos.c ****   /* USER CODE BEGIN RTOS_TIMERS */
 113:Core/Src/freertos.c ****   /* start timers, add new ones, ... */
 114:Core/Src/freertos.c ****   /* USER CODE END RTOS_TIMERS */
 115:Core/Src/freertos.c **** 
 116:Core/Src/freertos.c ****   /* USER CODE BEGIN RTOS_QUEUES */
 117:Core/Src/freertos.c ****   /* add queues, ... */
 118:Core/Src/freertos.c ****   /* USER CODE END RTOS_QUEUES */
 119:Core/Src/freertos.c **** 
 120:Core/Src/freertos.c ****   /* Create the thread(s) */
 121:Core/Src/freertos.c ****   /* creation of defaultTask */
 122:Core/Src/freertos.c ****   defaultTaskHandle = osThreadNew(StartDefaultTask, NULL, &defaultTask_attributes);
 123:Core/Src/freertos.c **** 
 124:Core/Src/freertos.c ****   /* USER CODE BEGIN RTOS_THREADS */
 125:Core/Src/freertos.c ****   /* add threads, ... */
 126:Core/Src/freertos.c ****   /* USER CODE END RTOS_THREADS */
 127:Core/Src/freertos.c **** 
 128:Core/Src/freertos.c ****   /* USER CODE BEGIN RTOS_EVENTS */
 129:Core/Src/freertos.c ****   /* add events, ... */
 130:Core/Src/freertos.c ****   /* USER CODE END RTOS_EVENTS */
 131:Core/Src/freertos.c **** 
 132:Core/Src/freertos.c **** }
 133:Core/Src/freertos.c **** 
 134:Core/Src/freertos.c **** /* USER CODE BEGIN Header_StartDefaultTask */
 135:Core/Src/freertos.c **** /**
 136:Core/Src/freertos.c ****   * @brief  Function implementing the defaultTask thread.
 137:Core/Src/freertos.c ****   * @param  argument: Not used
 138:Core/Src/freertos.c ****   * @retval None
 139:Core/Src/freertos.c ****   */
 140:Core/Src/freertos.c **** /* USER CODE END Header_StartDefaultTask */
 141:Core/Src/freertos.c **** void StartDefaultTask(void *argument)
 142:Core/Src/freertos.c **** {
  28              		.loc 1 142 1 view -0
  29              		.cfi_startproc
  30              		@ Volatile: function does not return.
ARM GAS  C:\Users\Simon\AppData\Local\Temp\ccx3lgto.s 			page 4


  31              		@ args = 0, pretend = 0, frame = 0
  32              		@ frame_needed = 0, uses_anonymous_args = 0
  33              	.LVL0:
  34              		.loc 1 142 1 is_stmt 0 view .LVU1
  35 0000 08B5     		push	{r3, lr}
  36              	.LCFI0:
  37              		.cfi_def_cfa_offset 8
  38              		.cfi_offset 3, -8
  39              		.cfi_offset 14, -4
  40              	.LVL1:
  41              	.L2:
 143:Core/Src/freertos.c ****   /* USER CODE BEGIN StartDefaultTask */
 144:Core/Src/freertos.c ****   /* Infinite loop */
 145:Core/Src/freertos.c ****   for(;;)
  42              		.loc 1 145 3 is_stmt 1 discriminator 1 view .LVU2
 146:Core/Src/freertos.c ****   {
 147:Core/Src/freertos.c ****     osDelay(1);
  43              		.loc 1 147 5 discriminator 1 view .LVU3
  44 0002 0120     		movs	r0, #1
  45 0004 FFF7FEFF 		bl	osDelay
  46              	.LVL2:
 145:Core/Src/freertos.c ****   {
  47              		.loc 1 145 3 discriminator 1 view .LVU4
  48 0008 FBE7     		b	.L2
  49              		.cfi_endproc
  50              	.LFE152:
  52              		.section	.text.configureTimerForRunTimeStats,"ax",%progbits
  53              		.align	1
  54              		.weak	configureTimerForRunTimeStats
  55              		.syntax unified
  56              		.thumb
  57              		.thumb_func
  59              	configureTimerForRunTimeStats:
  60              	.LFB148:
  75:Core/Src/freertos.c **** 
  61              		.loc 1 75 1 view -0
  62              		.cfi_startproc
  63              		@ args = 0, pretend = 0, frame = 0
  64              		@ frame_needed = 0, uses_anonymous_args = 0
  65              		@ link register save eliminated.
  77:Core/Src/freertos.c **** 
  66              		.loc 1 77 1 view .LVU6
  67 0000 7047     		bx	lr
  68              		.cfi_endproc
  69              	.LFE148:
  71              		.section	.text.getRunTimeCounterValue,"ax",%progbits
  72              		.align	1
  73              		.weak	getRunTimeCounterValue
  74              		.syntax unified
  75              		.thumb
  76              		.thumb_func
  78              	getRunTimeCounterValue:
  79              	.LFB149:
  80:Core/Src/freertos.c **** return 0;
  80              		.loc 1 80 1 view -0
  81              		.cfi_startproc
  82              		@ args = 0, pretend = 0, frame = 0
ARM GAS  C:\Users\Simon\AppData\Local\Temp\ccx3lgto.s 			page 5


  83              		@ frame_needed = 0, uses_anonymous_args = 0
  84              		@ link register save eliminated.
  81:Core/Src/freertos.c **** }
  85              		.loc 1 81 1 view .LVU8
  82:Core/Src/freertos.c **** /* USER CODE END 1 */
  86              		.loc 1 82 1 is_stmt 0 view .LVU9
  87 0000 0020     		movs	r0, #0
  88 0002 7047     		bx	lr
  89              		.cfi_endproc
  90              	.LFE149:
  92              		.section	.text.vApplicationStackOverflowHook,"ax",%progbits
  93              		.align	1
  94              		.global	vApplicationStackOverflowHook
  95              		.syntax unified
  96              		.thumb
  97              		.thumb_func
  99              	vApplicationStackOverflowHook:
 100              	.LVL3:
 101              	.LFB150:
  87:Core/Src/freertos.c ****    /* Run time stack overflow checking is performed if
 102              		.loc 1 87 1 is_stmt 1 view -0
 103              		.cfi_startproc
 104              		@ args = 0, pretend = 0, frame = 0
 105              		@ frame_needed = 0, uses_anonymous_args = 0
 106              		@ link register save eliminated.
  91:Core/Src/freertos.c **** /* USER CODE END 4 */
 107              		.loc 1 91 1 view .LVU11
 108 0000 7047     		bx	lr
 109              		.cfi_endproc
 110              	.LFE150:
 112              		.section	.text.MX_FREERTOS_Init,"ax",%progbits
 113              		.align	1
 114              		.global	MX_FREERTOS_Init
 115              		.syntax unified
 116              		.thumb
 117              		.thumb_func
 119              	MX_FREERTOS_Init:
 120              	.LFB151:
  99:Core/Src/freertos.c ****   /* USER CODE BEGIN Init */
 121              		.loc 1 99 29 view -0
 122              		.cfi_startproc
 123              		@ args = 0, pretend = 0, frame = 0
 124              		@ frame_needed = 0, uses_anonymous_args = 0
 125 0000 08B5     		push	{r3, lr}
 126              	.LCFI1:
 127              		.cfi_def_cfa_offset 8
 128              		.cfi_offset 3, -8
 129              		.cfi_offset 14, -4
 122:Core/Src/freertos.c **** 
 130              		.loc 1 122 3 view .LVU13
 122:Core/Src/freertos.c **** 
 131              		.loc 1 122 23 is_stmt 0 view .LVU14
 132 0002 044A     		ldr	r2, .L9
 133 0004 0021     		movs	r1, #0
 134 0006 0448     		ldr	r0, .L9+4
 135 0008 FFF7FEFF 		bl	osThreadNew
 136              	.LVL4:
ARM GAS  C:\Users\Simon\AppData\Local\Temp\ccx3lgto.s 			page 6


 122:Core/Src/freertos.c **** 
 137              		.loc 1 122 21 view .LVU15
 138 000c 034B     		ldr	r3, .L9+8
 139 000e 1860     		str	r0, [r3]
 132:Core/Src/freertos.c **** 
 140              		.loc 1 132 1 view .LVU16
 141 0010 08BD     		pop	{r3, pc}
 142              	.L10:
 143 0012 00BF     		.align	2
 144              	.L9:
 145 0014 00000000 		.word	.LANCHOR0
 146 0018 00000000 		.word	StartDefaultTask
 147 001c 00000000 		.word	.LANCHOR1
 148              		.cfi_endproc
 149              	.LFE151:
 151              		.global	defaultTask_attributes
 152              		.section	.rodata.str1.4,"aMS",%progbits,1
 153              		.align	2
 154              	.LC0:
 155 0000 64656661 		.ascii	"defaultTask\000"
 155      756C7454 
 155      61736B00 
 156              		.global	defaultTaskHandle
 157              		.section	.bss.defaultTaskHandle,"aw",%nobits
 158              		.align	2
 159              		.set	.LANCHOR1,. + 0
 162              	defaultTaskHandle:
 163 0000 00000000 		.space	4
 164              		.section	.rodata.defaultTask_attributes,"a"
 165              		.align	2
 166              		.set	.LANCHOR0,. + 0
 169              	defaultTask_attributes:
 170 0000 00000000 		.word	.LC0
 171 0004 00000000 		.space	16
 171      00000000 
 171      00000000 
 171      00000000 
 172 0014 00020000 		.word	512
 173 0018 18000000 		.word	24
 174 001c 00000000 		.space	8
 174      00000000 
 175              		.text
 176              	.Letext0:
 177              		.file 2 "c:\\program files (x86)\\arm gnu toolchain arm-none-eabi\\11.2 2022.02\\arm-none-eabi\\in
 178              		.file 3 "c:\\program files (x86)\\arm gnu toolchain arm-none-eabi\\11.2 2022.02\\arm-none-eabi\\in
 179              		.file 4 "Middlewares/Third_Party/FreeRTOS/Source/include/task.h"
 180              		.file 5 "Middlewares/Third_Party/FreeRTOS/Source/CMSIS_RTOS_V2/cmsis_os2.h"
ARM GAS  C:\Users\Simon\AppData\Local\Temp\ccx3lgto.s 			page 7

