ARM GAS  C:\Users\Simon\AppData\Local\Temp\ccusCpci.s 			page 1


   1              		.cpu cortex-m7
   2              		.arch armv7e-m
   3              		.fpu fpv5-d16
   4              		.eabi_attribute 28, 1
   5              		.eabi_attribute 20, 1
   6              		.eabi_attribute 21, 1
   7              		.eabi_attribute 23, 3
   8              		.eabi_attribute 24, 1
   9              		.eabi_attribute 25, 1
  10              		.eabi_attribute 26, 1
  11              		.eabi_attribute 30, 2
  12              		.eabi_attribute 34, 1
  13              		.eabi_attribute 18, 4
  14              		.file	"main.cpp"
  15              		.text
  16              		.section	.text._Z18SystemClock_Configv,"ax",%progbits
  17              		.align	1
  18              		.p2align 2,,3
  19              		.global	_Z18SystemClock_Configv
  20              		.syntax unified
  21              		.thumb
  22              		.thumb_func
  24              	_Z18SystemClock_Configv:
  25              		.fnstart
  26              	.LFB4731:
  27              		@ args = 0, pretend = 0, frame = 112
  28              		@ frame_needed = 0, uses_anonymous_args = 0
  29 0000 30B5     		push	{r4, r5, lr}
  30              		.save {r4, r5, lr}
  31              		.pad #116
  32 0002 9DB0     		sub	sp, sp, #116
  33 0004 4C22     		movs	r2, #76
  34 0006 0021     		movs	r1, #0
  35 0008 09A8     		add	r0, sp, #36
  36 000a FFF7FEFF 		bl	memset
  37 000e 2022     		movs	r2, #32
  38 0010 0021     		movs	r1, #0
  39 0012 01A8     		add	r0, sp, #4
  40 0014 FFF7FEFF 		bl	memset
  41 0018 0220     		movs	r0, #2
  42 001a FFF7FEFF 		bl	HAL_PWREx_ConfigSupply
  43 001e 254B     		ldr	r3, .L11
  44 0020 0021     		movs	r1, #0
  45 0022 254A     		ldr	r2, .L11+4
  46 0024 0091     		str	r1, [sp]
  47 0026 D96A     		ldr	r1, [r3, #44]
  48 0028 21F00101 		bic	r1, r1, #1
  49 002c D962     		str	r1, [r3, #44]
  50 002e DB6A     		ldr	r3, [r3, #44]
  51 0030 03F00103 		and	r3, r3, #1
  52 0034 0093     		str	r3, [sp]
  53 0036 9369     		ldr	r3, [r2, #24]
  54 0038 23F44043 		bic	r3, r3, #49152
  55 003c 43F48043 		orr	r3, r3, #16384
  56 0040 9361     		str	r3, [r2, #24]
  57 0042 9369     		ldr	r3, [r2, #24]
  58 0044 03F44043 		and	r3, r3, #49152
ARM GAS  C:\Users\Simon\AppData\Local\Temp\ccusCpci.s 			page 2


  59 0048 0093     		str	r3, [sp]
  60 004a 009B     		ldr	r3, [sp]
  61              	.L2:
  62 004c 9369     		ldr	r3, [r2, #24]
  63 004e 9B04     		lsls	r3, r3, #18
  64 0050 FCD5     		bpl	.L2
  65 0052 4022     		movs	r2, #64
  66 0054 0124     		movs	r4, #1
  67 0056 0223     		movs	r3, #2
  68 0058 0921     		movs	r1, #9
  69 005a 09A8     		add	r0, sp, #36
  70 005c 0993     		str	r3, [sp, #36]
  71 005e 1293     		str	r3, [sp, #72]
  72 0060 1693     		str	r3, [sp, #88]
  73 0062 1A93     		str	r3, [sp, #104]
  74 0064 1591     		str	r1, [sp, #84]
  75 0066 CDE90C42 		strd	r4, r2, [sp, #48]
  76 006a 0022     		movs	r2, #0
  77 006c 1392     		str	r2, [sp, #76]
  78 006e 0422     		movs	r2, #4
  79 0070 CDE91733 		strd	r3, r3, [sp, #92]
  80 0074 1492     		str	r2, [sp, #80]
  81 0076 0C23     		movs	r3, #12
  82 0078 4FF44062 		mov	r2, #3072
  83 007c 1993     		str	r3, [sp, #100]
  84 007e 1B92     		str	r2, [sp, #108]
  85 0080 FFF7FEFF 		bl	HAL_RCC_OscConfig
  86 0084 0346     		mov	r3, r0
  87 0086 08B1     		cbz	r0, .L3
  88              		.syntax unified
  89              	@ 209 "Drivers/CMSIS/Include/cmsis_gcc.h" 1
  90 0088 72B6     		cpsid i
  91              	@ 0 "" 2
  92              		.thumb
  93              		.syntax unified
  94              	.L4:
  95 008a FEE7     		b	.L4
  96              	.L3:
  97 008c 3F25     		movs	r5, #63
  98 008e 0322     		movs	r2, #3
  99 0090 2146     		mov	r1, r4
 100 0092 01A8     		add	r0, sp, #4
 101 0094 CDE90152 		strd	r5, r2, [sp, #4]
 102 0098 CDE90333 		strd	r3, r3, [sp, #12]
 103 009c CDE90533 		strd	r3, r3, [sp, #20]
 104 00a0 CDE90733 		strd	r3, r3, [sp, #28]
 105 00a4 FFF7FEFF 		bl	HAL_RCC_ClockConfig
 106 00a8 08B1     		cbz	r0, .L1
 107              		.syntax unified
 108              	@ 209 "Drivers/CMSIS/Include/cmsis_gcc.h" 1
 109 00aa 72B6     		cpsid i
 110              	@ 0 "" 2
 111              		.thumb
 112              		.syntax unified
 113              	.L6:
 114 00ac FEE7     		b	.L6
 115              	.L1:
ARM GAS  C:\Users\Simon\AppData\Local\Temp\ccusCpci.s 			page 3


 116 00ae 1DB0     		add	sp, sp, #116
 117              		@ sp needed
 118 00b0 30BD     		pop	{r4, r5, pc}
 119              	.L12:
 120 00b2 00BF     		.align	2
 121              	.L11:
 122 00b4 00040058 		.word	1476396032
 123 00b8 00480258 		.word	1476544512
 124              		.fnend
 126              		.section	.text.startup.main,"ax",%progbits
 127              		.align	1
 128              		.p2align 2,,3
 129              		.global	main
 130              		.syntax unified
 131              		.thumb
 132              		.thumb_func
 134              	main:
 135              		.fnstart
 136              	.LFB4610:
 137              		@ args = 0, pretend = 0, frame = 40
 138              		@ frame_needed = 0, uses_anonymous_args = 0
 139 0000 2DE9F041 		push	{r4, r5, r6, r7, r8, lr}
 140              		.save {r4, r5, r6, r7, r8, lr}
 141 0004 0024     		movs	r4, #0
 142              		.pad #40
 143 0006 8AB0     		sub	sp, sp, #40
 144 0008 234E     		ldr	r6, .L21
 145 000a 2027     		movs	r7, #32
 146 000c 0DF12C08 		add	r8, sp, #44
 147 0010 CDE90144 		strd	r4, r4, [sp, #4]
 148 0014 CDE90344 		strd	r4, r4, [sp, #12]
 149 0018 FFF7FEFF 		bl	HAL_MPU_Disable
 150 001c 48F21F73 		movw	r3, #34591
 151 0020 0122     		movs	r2, #1
 152 0022 01A8     		add	r0, sp, #4
 153 0024 0393     		str	r3, [sp, #12]
 154 0026 40F20113 		movw	r3, #257
 155 002a ADF80420 		strh	r2, [sp, #4]	@ movhi
 156 002e 0493     		str	r3, [sp, #16]
 157 0030 0294     		str	r4, [sp, #8]
 158 0032 FFF7FEFF 		bl	HAL_MPU_ConfigRegion
 159 0036 0420     		movs	r0, #4
 160 0038 FFF7FEFF 		bl	HAL_MPU_Enable
 161 003c FFF7FEFF 		bl	HAL_Init
 162 0040 FFF7FEFF 		bl	_Z18SystemClock_Configv
 163              	.L15:
 164 0044 154C     		ldr	r4, .L21+4
 165 0046 0DF1040C 		add	ip, sp, #4
 166 004a 07AD     		add	r5, sp, #28
 167 004c 0FCC     		ldmia	r4!, {r0, r1, r2, r3}
 168 004e ACE80F00 		stmia	ip!, {r0, r1, r2, r3}
 169 0052 0FCC     		ldmia	r4!, {r0, r1, r2, r3}
 170 0054 2468     		ldr	r4, [r4]
 171 0056 ACE80F00 		stmia	ip!, {r0, r1, r2, r3}
 172 005a CCF80040 		str	r4, [ip]
 173              	.L14:
 174 005e A5F11804 		sub	r4, r5, #24
ARM GAS  C:\Users\Simon\AppData\Local\Temp\ccusCpci.s 			page 4


 175              	.L16:
 176 0062 54F8041B 		ldr	r1, [r4], #4
 177 0066 3046     		mov	r0, r6
 178 0068 FFF7FEFF 		bl	_ZNSolsEi
 179 006c 0122     		movs	r2, #1
 180 006e 0DF10301 		add	r1, sp, #3
 181 0072 8DF80370 		strb	r7, [sp, #3]
 182 0076 FFF7FEFF 		bl	_ZSt16__ostream_insertIcSt11char_traitsIcEERSt13basic_ostreamIT_T0_ES6_PKS3_i
 183 007a AC42     		cmp	r4, r5
 184 007c F1D1     		bne	.L16
 185 007e 0A23     		movs	r3, #10
 186 0080 0435     		adds	r5, r5, #4
 187 0082 0122     		movs	r2, #1
 188 0084 0DF10301 		add	r1, sp, #3
 189 0088 3046     		mov	r0, r6
 190 008a 8DF80330 		strb	r3, [sp, #3]
 191 008e FFF7FEFF 		bl	_ZSt16__ostream_insertIcSt11char_traitsIcEERSt13basic_ostreamIT_T0_ES6_PKS3_i
 192 0092 4545     		cmp	r5, r8
 193 0094 E3D1     		bne	.L14
 194 0096 D5E7     		b	.L15
 195              	.L22:
 196              		.align	2
 197              	.L21:
 198 0098 00000000 		.word	_ZSt4cout
 199 009c 00000000 		.word	.LANCHOR0
 200              		.fnend
 202              		.section	.text.HAL_TIM_PeriodElapsedCallback,"ax",%progbits
 203              		.align	1
 204              		.p2align 2,,3
 205              		.global	HAL_TIM_PeriodElapsedCallback
 206              		.syntax unified
 207              		.thumb
 208              		.thumb_func
 210              	HAL_TIM_PeriodElapsedCallback:
 211              		.fnstart
 212              	.LFB4733:
 213              		@ args = 0, pretend = 0, frame = 0
 214              		@ frame_needed = 0, uses_anonymous_args = 0
 215              		@ link register save eliminated.
 216 0000 034B     		ldr	r3, .L26
 217 0002 0268     		ldr	r2, [r0]
 218 0004 9A42     		cmp	r2, r3
 219 0006 00D0     		beq	.L25
 220 0008 7047     		bx	lr
 221              	.L25:
 222 000a FFF7FEBF 		b	HAL_IncTick
 223              	.L27:
 224 000e 00BF     		.align	2
 225              	.L26:
 226 0010 00000140 		.word	1073807360
 227              		.cantunwind
 228              		.fnend
 230              		.section	.text.Error_Handler,"ax",%progbits
 231              		.align	1
 232              		.p2align 2,,3
 233              		.global	Error_Handler
 234              		.syntax unified
ARM GAS  C:\Users\Simon\AppData\Local\Temp\ccusCpci.s 			page 5


 235              		.thumb
 236              		.thumb_func
 238              	Error_Handler:
 239              		.fnstart
 240              	.LFB4734:
 241              		@ Volatile: function does not return.
 242              		@ args = 0, pretend = 0, frame = 0
 243              		@ frame_needed = 0, uses_anonymous_args = 0
 244              		@ link register save eliminated.
 245              		.syntax unified
 246              	@ 209 "Drivers/CMSIS/Include/cmsis_gcc.h" 1
 247 0000 72B6     		cpsid i
 248              	@ 0 "" 2
 249              		.thumb
 250              		.syntax unified
 251              	.L29:
 252 0002 FEE7     		b	.L29
 253              		.cantunwind
 254              		.fnend
 256              		.section	.text.startup._GLOBAL__sub_I_main,"ax",%progbits
 257              		.align	1
 258              		.p2align 2,,3
 259              		.syntax unified
 260              		.thumb
 261              		.thumb_func
 263              	_GLOBAL__sub_I_main:
 264              		.fnstart
 265              	.LFB5411:
 266              		@ args = 0, pretend = 0, frame = 0
 267              		@ frame_needed = 0, uses_anonymous_args = 0
 268 0000 10B5     		push	{r4, lr}
 269 0002 054C     		ldr	r4, .L32
 270 0004 2046     		mov	r0, r4
 271 0006 FFF7FEFF 		bl	_ZNSt8ios_base4InitC1Ev
 272 000a 2046     		mov	r0, r4
 273 000c 034A     		ldr	r2, .L32+4
 274 000e 0449     		ldr	r1, .L32+8
 275 0010 BDE81040 		pop	{r4, lr}
 276 0014 FFF7FEBF 		b	__aeabi_atexit
 277              	.L33:
 278              		.align	2
 279              	.L32:
 280 0018 00000000 		.word	.LANCHOR1
 281 001c 00000000 		.word	__dso_handle
 282 0020 00000000 		.word	_ZNSt8ios_base4InitD1Ev
 283              		.cantunwind
 284              		.fnend
 286              		.section	.init_array,"aw",%init_array
 287              		.align	2
 288 0000 00000000 		.word	_GLOBAL__sub_I_main(target1)
 289              		.section	.rodata
 290              		.align	2
 291              		.set	.LANCHOR0,. + 0
 292              	.LC0:
 293 0000 00000000 		.word	0
 294 0004 01000000 		.word	1
 295 0008 02000000 		.word	2
ARM GAS  C:\Users\Simon\AppData\Local\Temp\ccusCpci.s 			page 6


 296 000c 03000000 		.word	3
 297 0010 04000000 		.word	4
 298 0014 05000000 		.word	5
 299 0018 06000000 		.word	6
 300 001c 07000000 		.word	7
 301 0020 08000000 		.word	8
 302              		.section	.bss._ZStL8__ioinit,"aw",%nobits
 303              		.align	2
 304              		.set	.LANCHOR1,. + 0
 307              	_ZStL8__ioinit:
 308 0000 00       		.space	1
 309              		.hidden	__dso_handle
 310              		.ident	"GCC: (GNU Toolchain for the Arm Architecture 11.2-2022.02 (arm-11.16)) 11.2.1 20220111"
ARM GAS  C:\Users\Simon\AppData\Local\Temp\ccusCpci.s 			page 7

