ARM GAS  C:\Users\Simon\AppData\Local\Temp\cca6nQ8B.s 			page 1


   1              		.cpu cortex-m7
   2              		.arch armv7e-m
   3              		.fpu fpv5-d16
   4              		.eabi_attribute 28, 1
   5              		.eabi_attribute 20, 1
   6              		.eabi_attribute 21, 1
   7              		.eabi_attribute 23, 3
   8              		.eabi_attribute 24, 1
   9              		.eabi_attribute 25, 1
  10              		.eabi_attribute 26, 1
  11              		.eabi_attribute 30, 2
  12              		.eabi_attribute 34, 1
  13              		.eabi_attribute 18, 4
  14              		.file	"stm32h7xx_hal_timebase_tim.c"
  15              		.text
  16              	.Ltext0:
  17              		.cfi_sections	.debug_frame
  18              		.section	.text.HAL_InitTick,"ax",%progbits
  19              		.align	1
  20              		.p2align 2,,3
  21              		.global	HAL_InitTick
  22              		.syntax unified
  23              		.thumb
  24              		.thumb_func
  26              	HAL_InitTick:
  27              	.LVL0:
  28              	.LFB144:
  29              		.file 1 "Core/Src/stm32h7xx_hal_timebase_tim.c"
   1:Core/Src/stm32h7xx_hal_timebase_tim.c **** /* USER CODE BEGIN Header */
   2:Core/Src/stm32h7xx_hal_timebase_tim.c **** /**
   3:Core/Src/stm32h7xx_hal_timebase_tim.c ****   ******************************************************************************
   4:Core/Src/stm32h7xx_hal_timebase_tim.c ****   * @file    stm32h7xx_hal_timebase_TIM.c
   5:Core/Src/stm32h7xx_hal_timebase_tim.c ****   * @brief   HAL time base based on the hardware TIM.
   6:Core/Src/stm32h7xx_hal_timebase_tim.c ****   ******************************************************************************
   7:Core/Src/stm32h7xx_hal_timebase_tim.c ****   * @attention
   8:Core/Src/stm32h7xx_hal_timebase_tim.c ****   *
   9:Core/Src/stm32h7xx_hal_timebase_tim.c ****   * Copyright (c) 2022 STMicroelectronics.
  10:Core/Src/stm32h7xx_hal_timebase_tim.c ****   * All rights reserved.
  11:Core/Src/stm32h7xx_hal_timebase_tim.c ****   *
  12:Core/Src/stm32h7xx_hal_timebase_tim.c ****   * This software is licensed under terms that can be found in the LICENSE file
  13:Core/Src/stm32h7xx_hal_timebase_tim.c ****   * in the root directory of this software component.
  14:Core/Src/stm32h7xx_hal_timebase_tim.c ****   * If no LICENSE file comes with this software, it is provided AS-IS.
  15:Core/Src/stm32h7xx_hal_timebase_tim.c ****   *
  16:Core/Src/stm32h7xx_hal_timebase_tim.c ****   ******************************************************************************
  17:Core/Src/stm32h7xx_hal_timebase_tim.c ****   */
  18:Core/Src/stm32h7xx_hal_timebase_tim.c **** /* USER CODE END Header */
  19:Core/Src/stm32h7xx_hal_timebase_tim.c **** 
  20:Core/Src/stm32h7xx_hal_timebase_tim.c **** /* Includes ------------------------------------------------------------------*/
  21:Core/Src/stm32h7xx_hal_timebase_tim.c **** #include "stm32h7xx_hal.h"
  22:Core/Src/stm32h7xx_hal_timebase_tim.c **** #include "stm32h7xx_hal_tim.h"
  23:Core/Src/stm32h7xx_hal_timebase_tim.c **** 
  24:Core/Src/stm32h7xx_hal_timebase_tim.c **** /* Private typedef -----------------------------------------------------------*/
  25:Core/Src/stm32h7xx_hal_timebase_tim.c **** /* Private define ------------------------------------------------------------*/
  26:Core/Src/stm32h7xx_hal_timebase_tim.c **** /* Private macro -------------------------------------------------------------*/
  27:Core/Src/stm32h7xx_hal_timebase_tim.c **** /* Private variables ---------------------------------------------------------*/
  28:Core/Src/stm32h7xx_hal_timebase_tim.c **** TIM_HandleTypeDef        htim1;
  29:Core/Src/stm32h7xx_hal_timebase_tim.c **** /* Private function prototypes -----------------------------------------------*/
ARM GAS  C:\Users\Simon\AppData\Local\Temp\cca6nQ8B.s 			page 2


  30:Core/Src/stm32h7xx_hal_timebase_tim.c **** /* Private functions ---------------------------------------------------------*/
  31:Core/Src/stm32h7xx_hal_timebase_tim.c **** 
  32:Core/Src/stm32h7xx_hal_timebase_tim.c **** /**
  33:Core/Src/stm32h7xx_hal_timebase_tim.c ****   * @brief  This function configures the TIM1 as a time base source.
  34:Core/Src/stm32h7xx_hal_timebase_tim.c ****   *         The time source is configured  to have 1ms time base with a dedicated
  35:Core/Src/stm32h7xx_hal_timebase_tim.c ****   *         Tick interrupt priority.
  36:Core/Src/stm32h7xx_hal_timebase_tim.c ****   * @note   This function is called  automatically at the beginning of program after
  37:Core/Src/stm32h7xx_hal_timebase_tim.c ****   *         reset by HAL_Init() or at any time when clock is configured, by HAL_RCC_ClockConfig().
  38:Core/Src/stm32h7xx_hal_timebase_tim.c ****   * @param  TickPriority: Tick interrupt priority.
  39:Core/Src/stm32h7xx_hal_timebase_tim.c ****   * @retval HAL status
  40:Core/Src/stm32h7xx_hal_timebase_tim.c ****   */
  41:Core/Src/stm32h7xx_hal_timebase_tim.c **** HAL_StatusTypeDef HAL_InitTick(uint32_t TickPriority)
  42:Core/Src/stm32h7xx_hal_timebase_tim.c **** {
  30              		.loc 1 42 1 view -0
  31              		.cfi_startproc
  32              		@ args = 0, pretend = 0, frame = 40
  33              		@ frame_needed = 0, uses_anonymous_args = 0
  43:Core/Src/stm32h7xx_hal_timebase_tim.c ****   RCC_ClkInitTypeDef    clkconfig;
  34              		.loc 1 43 3 view .LVU1
  44:Core/Src/stm32h7xx_hal_timebase_tim.c ****   uint32_t              uwTimclock;
  35              		.loc 1 44 3 view .LVU2
  45:Core/Src/stm32h7xx_hal_timebase_tim.c **** 
  46:Core/Src/stm32h7xx_hal_timebase_tim.c ****   uint32_t              uwPrescalerValue;
  36              		.loc 1 46 3 view .LVU3
  47:Core/Src/stm32h7xx_hal_timebase_tim.c ****   uint32_t              pFLatency;
  37              		.loc 1 47 3 view .LVU4
  48:Core/Src/stm32h7xx_hal_timebase_tim.c **** /*Configure the TIM1 IRQ priority */
  49:Core/Src/stm32h7xx_hal_timebase_tim.c ****   if (TickPriority < (1UL << __NVIC_PRIO_BITS))
  38              		.loc 1 49 3 view .LVU5
  39              		.loc 1 49 6 is_stmt 0 view .LVU6
  40 0000 0F28     		cmp	r0, #15
  41 0002 01D9     		bls	.L2
  50:Core/Src/stm32h7xx_hal_timebase_tim.c ****   {
  51:Core/Src/stm32h7xx_hal_timebase_tim.c ****   HAL_NVIC_SetPriority(TIM1_UP_IRQn, TickPriority ,0U);
  52:Core/Src/stm32h7xx_hal_timebase_tim.c **** 
  53:Core/Src/stm32h7xx_hal_timebase_tim.c ****   /* Enable the TIM1 global Interrupt */
  54:Core/Src/stm32h7xx_hal_timebase_tim.c ****   HAL_NVIC_EnableIRQ(TIM1_UP_IRQn);
  55:Core/Src/stm32h7xx_hal_timebase_tim.c ****     uwTickPrio = TickPriority;
  56:Core/Src/stm32h7xx_hal_timebase_tim.c ****     }
  57:Core/Src/stm32h7xx_hal_timebase_tim.c ****   else
  58:Core/Src/stm32h7xx_hal_timebase_tim.c ****   {
  59:Core/Src/stm32h7xx_hal_timebase_tim.c ****     return HAL_ERROR;
  42              		.loc 1 59 12 view .LVU7
  43 0004 0120     		movs	r0, #1
  44              	.LVL1:
  60:Core/Src/stm32h7xx_hal_timebase_tim.c ****   }
  61:Core/Src/stm32h7xx_hal_timebase_tim.c **** 
  62:Core/Src/stm32h7xx_hal_timebase_tim.c ****   /* Enable TIM1 clock */
  63:Core/Src/stm32h7xx_hal_timebase_tim.c ****   __HAL_RCC_TIM1_CLK_ENABLE();
  64:Core/Src/stm32h7xx_hal_timebase_tim.c **** 
  65:Core/Src/stm32h7xx_hal_timebase_tim.c ****   /* Get clock configuration */
  66:Core/Src/stm32h7xx_hal_timebase_tim.c ****   HAL_RCC_GetClockConfig(&clkconfig, &pFLatency);
  67:Core/Src/stm32h7xx_hal_timebase_tim.c **** 
  68:Core/Src/stm32h7xx_hal_timebase_tim.c ****   /* Compute TIM1 clock */
  69:Core/Src/stm32h7xx_hal_timebase_tim.c **** 
  70:Core/Src/stm32h7xx_hal_timebase_tim.c ****   uwTimclock = HAL_RCC_GetPCLK2Freq();
  71:Core/Src/stm32h7xx_hal_timebase_tim.c **** 
ARM GAS  C:\Users\Simon\AppData\Local\Temp\cca6nQ8B.s 			page 3


  72:Core/Src/stm32h7xx_hal_timebase_tim.c ****   /* Compute the prescaler value to have TIM1 counter clock equal to 1MHz */
  73:Core/Src/stm32h7xx_hal_timebase_tim.c ****   uwPrescalerValue = (uint32_t) ((uwTimclock / 1000000U) - 1U);
  74:Core/Src/stm32h7xx_hal_timebase_tim.c **** 
  75:Core/Src/stm32h7xx_hal_timebase_tim.c ****   /* Initialize TIM1 */
  76:Core/Src/stm32h7xx_hal_timebase_tim.c ****   htim1.Instance = TIM1;
  77:Core/Src/stm32h7xx_hal_timebase_tim.c **** 
  78:Core/Src/stm32h7xx_hal_timebase_tim.c ****   /* Initialize TIMx peripheral as follow:
  79:Core/Src/stm32h7xx_hal_timebase_tim.c ****   + Period = [(TIM1CLK/1000) - 1]. to have a (1/1000) s time base.
  80:Core/Src/stm32h7xx_hal_timebase_tim.c ****   + Prescaler = (uwTimclock/1000000 - 1) to have a 1MHz counter clock.
  81:Core/Src/stm32h7xx_hal_timebase_tim.c ****   + ClockDivision = 0
  82:Core/Src/stm32h7xx_hal_timebase_tim.c ****   + Counter direction = Up
  83:Core/Src/stm32h7xx_hal_timebase_tim.c ****   */
  84:Core/Src/stm32h7xx_hal_timebase_tim.c ****   htim1.Init.Period = (1000000U / 1000U) - 1U;
  85:Core/Src/stm32h7xx_hal_timebase_tim.c ****   htim1.Init.Prescaler = uwPrescalerValue;
  86:Core/Src/stm32h7xx_hal_timebase_tim.c ****   htim1.Init.ClockDivision = 0;
  87:Core/Src/stm32h7xx_hal_timebase_tim.c ****   htim1.Init.CounterMode = TIM_COUNTERMODE_UP;
  88:Core/Src/stm32h7xx_hal_timebase_tim.c **** 
  89:Core/Src/stm32h7xx_hal_timebase_tim.c ****   if(HAL_TIM_Base_Init(&htim1) == HAL_OK)
  90:Core/Src/stm32h7xx_hal_timebase_tim.c ****   {
  91:Core/Src/stm32h7xx_hal_timebase_tim.c ****     /* Start the TIM time Base generation in interrupt mode */
  92:Core/Src/stm32h7xx_hal_timebase_tim.c ****     return HAL_TIM_Base_Start_IT(&htim1);
  93:Core/Src/stm32h7xx_hal_timebase_tim.c ****   }
  94:Core/Src/stm32h7xx_hal_timebase_tim.c **** 
  95:Core/Src/stm32h7xx_hal_timebase_tim.c ****   /* Return function status */
  96:Core/Src/stm32h7xx_hal_timebase_tim.c ****   return HAL_ERROR;
  97:Core/Src/stm32h7xx_hal_timebase_tim.c **** }
  45              		.loc 1 97 1 view .LVU8
  46 0006 7047     		bx	lr
  47              	.LVL2:
  48              	.L2:
  51:Core/Src/stm32h7xx_hal_timebase_tim.c **** 
  49              		.loc 1 51 3 is_stmt 1 view .LVU9
  42:Core/Src/stm32h7xx_hal_timebase_tim.c ****   RCC_ClkInitTypeDef    clkconfig;
  50              		.loc 1 42 1 is_stmt 0 view .LVU10
  51 0008 30B5     		push	{r4, r5, lr}
  52              	.LCFI0:
  53              		.cfi_def_cfa_offset 12
  54              		.cfi_offset 4, -12
  55              		.cfi_offset 5, -8
  56              		.cfi_offset 14, -4
  51:Core/Src/stm32h7xx_hal_timebase_tim.c **** 
  57              		.loc 1 51 3 view .LVU11
  58 000a 0146     		mov	r1, r0
  42:Core/Src/stm32h7xx_hal_timebase_tim.c ****   RCC_ClkInitTypeDef    clkconfig;
  59              		.loc 1 42 1 view .LVU12
  60 000c 8BB0     		sub	sp, sp, #44
  61              	.LCFI1:
  62              		.cfi_def_cfa_offset 56
  51:Core/Src/stm32h7xx_hal_timebase_tim.c **** 
  63              		.loc 1 51 3 view .LVU13
  64 000e 0022     		movs	r2, #0
  65 0010 0446     		mov	r4, r0
  66 0012 1920     		movs	r0, #25
  67              	.LVL3:
  76:Core/Src/stm32h7xx_hal_timebase_tim.c **** 
  68              		.loc 1 76 18 view .LVU14
  69 0014 194D     		ldr	r5, .L10
ARM GAS  C:\Users\Simon\AppData\Local\Temp\cca6nQ8B.s 			page 4


  51:Core/Src/stm32h7xx_hal_timebase_tim.c **** 
  70              		.loc 1 51 3 view .LVU15
  71 0016 FFF7FEFF 		bl	HAL_NVIC_SetPriority
  72              	.LVL4:
  54:Core/Src/stm32h7xx_hal_timebase_tim.c ****     uwTickPrio = TickPriority;
  73              		.loc 1 54 3 is_stmt 1 view .LVU16
  74 001a 1920     		movs	r0, #25
  75 001c FFF7FEFF 		bl	HAL_NVIC_EnableIRQ
  76              	.LVL5:
  55:Core/Src/stm32h7xx_hal_timebase_tim.c ****     }
  77              		.loc 1 55 5 view .LVU17
  78              	.LBB2:
  63:Core/Src/stm32h7xx_hal_timebase_tim.c **** 
  79              		.loc 1 63 3 is_stmt 0 view .LVU18
  80 0020 174B     		ldr	r3, .L10+4
  81              	.LBE2:
  55:Core/Src/stm32h7xx_hal_timebase_tim.c ****     }
  82              		.loc 1 55 16 view .LVU19
  83 0022 184A     		ldr	r2, .L10+8
  66:Core/Src/stm32h7xx_hal_timebase_tim.c **** 
  84              		.loc 1 66 3 view .LVU20
  85 0024 6946     		mov	r1, sp
  86 0026 02A8     		add	r0, sp, #8
  55:Core/Src/stm32h7xx_hal_timebase_tim.c ****     }
  87              		.loc 1 55 16 view .LVU21
  88 0028 1460     		str	r4, [r2]
  63:Core/Src/stm32h7xx_hal_timebase_tim.c **** 
  89              		.loc 1 63 3 is_stmt 1 view .LVU22
  90              	.LBB3:
  63:Core/Src/stm32h7xx_hal_timebase_tim.c **** 
  91              		.loc 1 63 3 view .LVU23
  63:Core/Src/stm32h7xx_hal_timebase_tim.c **** 
  92              		.loc 1 63 3 view .LVU24
  93 002a D3F8F020 		ldr	r2, [r3, #240]
  94 002e 42F00102 		orr	r2, r2, #1
  95 0032 C3F8F020 		str	r2, [r3, #240]
  63:Core/Src/stm32h7xx_hal_timebase_tim.c **** 
  96              		.loc 1 63 3 view .LVU25
  97 0036 D3F8F030 		ldr	r3, [r3, #240]
  98 003a 03F00103 		and	r3, r3, #1
  99 003e 0193     		str	r3, [sp, #4]
  63:Core/Src/stm32h7xx_hal_timebase_tim.c **** 
 100              		.loc 1 63 3 view .LVU26
 101 0040 019B     		ldr	r3, [sp, #4]
 102              	.LBE3:
  63:Core/Src/stm32h7xx_hal_timebase_tim.c **** 
 103              		.loc 1 63 3 view .LVU27
  66:Core/Src/stm32h7xx_hal_timebase_tim.c **** 
 104              		.loc 1 66 3 view .LVU28
 105 0042 FFF7FEFF 		bl	HAL_RCC_GetClockConfig
 106              	.LVL6:
  70:Core/Src/stm32h7xx_hal_timebase_tim.c **** 
 107              		.loc 1 70 3 view .LVU29
  70:Core/Src/stm32h7xx_hal_timebase_tim.c **** 
 108              		.loc 1 70 16 is_stmt 0 view .LVU30
 109 0046 FFF7FEFF 		bl	HAL_RCC_GetPCLK2Freq
 110              	.LVL7:
ARM GAS  C:\Users\Simon\AppData\Local\Temp\cca6nQ8B.s 			page 5


  86:Core/Src/stm32h7xx_hal_timebase_tim.c ****   htim1.Init.CounterMode = TIM_COUNTERMODE_UP;
 111              		.loc 1 86 28 view .LVU31
 112 004a 0022     		movs	r2, #0
 113              	.LVL8:
  73:Core/Src/stm32h7xx_hal_timebase_tim.c **** 
 114              		.loc 1 73 3 is_stmt 1 view .LVU32
  76:Core/Src/stm32h7xx_hal_timebase_tim.c **** 
 115              		.loc 1 76 3 view .LVU33
  73:Core/Src/stm32h7xx_hal_timebase_tim.c **** 
 116              		.loc 1 73 46 is_stmt 0 view .LVU34
 117 004c 0E4B     		ldr	r3, .L10+12
  86:Core/Src/stm32h7xx_hal_timebase_tim.c ****   htim1.Init.CounterMode = TIM_COUNTERMODE_UP;
 118              		.loc 1 86 28 view .LVU35
 119 004e 2A61     		str	r2, [r5, #16]
  87:Core/Src/stm32h7xx_hal_timebase_tim.c **** 
 120              		.loc 1 87 26 view .LVU36
 121 0050 AA60     		str	r2, [r5, #8]
  73:Core/Src/stm32h7xx_hal_timebase_tim.c **** 
 122              		.loc 1 73 46 view .LVU37
 123 0052 A3FB0023 		umull	r2, r3, r3, r0
  76:Core/Src/stm32h7xx_hal_timebase_tim.c **** 
 124              		.loc 1 76 18 view .LVU38
 125 0056 0D49     		ldr	r1, .L10+16
  84:Core/Src/stm32h7xx_hal_timebase_tim.c ****   htim1.Init.Prescaler = uwPrescalerValue;
 126              		.loc 1 84 21 view .LVU39
 127 0058 40F2E732 		movw	r2, #999
  89:Core/Src/stm32h7xx_hal_timebase_tim.c ****   {
 128              		.loc 1 89 6 view .LVU40
 129 005c 2846     		mov	r0, r5
 130              	.LVL9:
  73:Core/Src/stm32h7xx_hal_timebase_tim.c **** 
 131              		.loc 1 73 46 view .LVU41
 132 005e 9B0C     		lsrs	r3, r3, #18
  76:Core/Src/stm32h7xx_hal_timebase_tim.c **** 
 133              		.loc 1 76 18 view .LVU42
 134 0060 2960     		str	r1, [r5]
  84:Core/Src/stm32h7xx_hal_timebase_tim.c ****   htim1.Init.Prescaler = uwPrescalerValue;
 135              		.loc 1 84 3 is_stmt 1 view .LVU43
  84:Core/Src/stm32h7xx_hal_timebase_tim.c ****   htim1.Init.Prescaler = uwPrescalerValue;
 136              		.loc 1 84 21 is_stmt 0 view .LVU44
 137 0062 EA60     		str	r2, [r5, #12]
  85:Core/Src/stm32h7xx_hal_timebase_tim.c ****   htim1.Init.ClockDivision = 0;
 138              		.loc 1 85 3 is_stmt 1 view .LVU45
  73:Core/Src/stm32h7xx_hal_timebase_tim.c **** 
 139              		.loc 1 73 20 is_stmt 0 view .LVU46
 140 0064 013B     		subs	r3, r3, #1
  85:Core/Src/stm32h7xx_hal_timebase_tim.c ****   htim1.Init.ClockDivision = 0;
 141              		.loc 1 85 24 view .LVU47
 142 0066 6B60     		str	r3, [r5, #4]
  86:Core/Src/stm32h7xx_hal_timebase_tim.c ****   htim1.Init.CounterMode = TIM_COUNTERMODE_UP;
 143              		.loc 1 86 3 is_stmt 1 view .LVU48
  87:Core/Src/stm32h7xx_hal_timebase_tim.c **** 
 144              		.loc 1 87 3 view .LVU49
  89:Core/Src/stm32h7xx_hal_timebase_tim.c ****   {
 145              		.loc 1 89 3 view .LVU50
  89:Core/Src/stm32h7xx_hal_timebase_tim.c ****   {
 146              		.loc 1 89 6 is_stmt 0 view .LVU51
ARM GAS  C:\Users\Simon\AppData\Local\Temp\cca6nQ8B.s 			page 6


 147 0068 FFF7FEFF 		bl	HAL_TIM_Base_Init
 148              	.LVL10:
  89:Core/Src/stm32h7xx_hal_timebase_tim.c ****   {
 149              		.loc 1 89 5 view .LVU52
 150 006c 10B1     		cbz	r0, .L9
  59:Core/Src/stm32h7xx_hal_timebase_tim.c ****   }
 151              		.loc 1 59 12 view .LVU53
 152 006e 0120     		movs	r0, #1
 153              	.L3:
 154              		.loc 1 97 1 view .LVU54
 155 0070 0BB0     		add	sp, sp, #44
 156              	.LCFI2:
 157              		.cfi_remember_state
 158              		.cfi_def_cfa_offset 12
 159              		@ sp needed
 160 0072 30BD     		pop	{r4, r5, pc}
 161              	.LVL11:
 162              	.L9:
 163              	.LCFI3:
 164              		.cfi_restore_state
  92:Core/Src/stm32h7xx_hal_timebase_tim.c ****   }
 165              		.loc 1 92 5 is_stmt 1 view .LVU55
  92:Core/Src/stm32h7xx_hal_timebase_tim.c ****   }
 166              		.loc 1 92 12 is_stmt 0 view .LVU56
 167 0074 2846     		mov	r0, r5
 168 0076 FFF7FEFF 		bl	HAL_TIM_Base_Start_IT
 169              	.LVL12:
 170 007a F9E7     		b	.L3
 171              	.L11:
 172              		.align	2
 173              	.L10:
 174 007c 00000000 		.word	.LANCHOR0
 175 0080 00440258 		.word	1476543488
 176 0084 00000000 		.word	uwTickPrio
 177 0088 83DE1B43 		.word	1125899907
 178 008c 00000140 		.word	1073807360
 179              		.cfi_endproc
 180              	.LFE144:
 182              		.section	.text.HAL_SuspendTick,"ax",%progbits
 183              		.align	1
 184              		.p2align 2,,3
 185              		.global	HAL_SuspendTick
 186              		.syntax unified
 187              		.thumb
 188              		.thumb_func
 190              	HAL_SuspendTick:
 191              	.LFB145:
  98:Core/Src/stm32h7xx_hal_timebase_tim.c **** 
  99:Core/Src/stm32h7xx_hal_timebase_tim.c **** /**
 100:Core/Src/stm32h7xx_hal_timebase_tim.c ****   * @brief  Suspend Tick increment.
 101:Core/Src/stm32h7xx_hal_timebase_tim.c ****   * @note   Disable the tick increment by disabling TIM1 update interrupt.
 102:Core/Src/stm32h7xx_hal_timebase_tim.c ****   * @param  None
 103:Core/Src/stm32h7xx_hal_timebase_tim.c ****   * @retval None
 104:Core/Src/stm32h7xx_hal_timebase_tim.c ****   */
 105:Core/Src/stm32h7xx_hal_timebase_tim.c **** void HAL_SuspendTick(void)
 106:Core/Src/stm32h7xx_hal_timebase_tim.c **** {
 192              		.loc 1 106 1 is_stmt 1 view -0
ARM GAS  C:\Users\Simon\AppData\Local\Temp\cca6nQ8B.s 			page 7


 193              		.cfi_startproc
 194              		@ args = 0, pretend = 0, frame = 0
 195              		@ frame_needed = 0, uses_anonymous_args = 0
 196              		@ link register save eliminated.
 107:Core/Src/stm32h7xx_hal_timebase_tim.c ****   /* Disable TIM1 update Interrupt */
 108:Core/Src/stm32h7xx_hal_timebase_tim.c ****   __HAL_TIM_DISABLE_IT(&htim1, TIM_IT_UPDATE);
 197              		.loc 1 108 3 view .LVU58
 198 0000 034B     		ldr	r3, .L13
 199 0002 1A68     		ldr	r2, [r3]
 200 0004 D368     		ldr	r3, [r2, #12]
 201 0006 23F00103 		bic	r3, r3, #1
 202 000a D360     		str	r3, [r2, #12]
 109:Core/Src/stm32h7xx_hal_timebase_tim.c **** }
 203              		.loc 1 109 1 is_stmt 0 view .LVU59
 204 000c 7047     		bx	lr
 205              	.L14:
 206 000e 00BF     		.align	2
 207              	.L13:
 208 0010 00000000 		.word	.LANCHOR0
 209              		.cfi_endproc
 210              	.LFE145:
 212              		.section	.text.HAL_ResumeTick,"ax",%progbits
 213              		.align	1
 214              		.p2align 2,,3
 215              		.global	HAL_ResumeTick
 216              		.syntax unified
 217              		.thumb
 218              		.thumb_func
 220              	HAL_ResumeTick:
 221              	.LFB146:
 110:Core/Src/stm32h7xx_hal_timebase_tim.c **** 
 111:Core/Src/stm32h7xx_hal_timebase_tim.c **** /**
 112:Core/Src/stm32h7xx_hal_timebase_tim.c ****   * @brief  Resume Tick increment.
 113:Core/Src/stm32h7xx_hal_timebase_tim.c ****   * @note   Enable the tick increment by Enabling TIM1 update interrupt.
 114:Core/Src/stm32h7xx_hal_timebase_tim.c ****   * @param  None
 115:Core/Src/stm32h7xx_hal_timebase_tim.c ****   * @retval None
 116:Core/Src/stm32h7xx_hal_timebase_tim.c ****   */
 117:Core/Src/stm32h7xx_hal_timebase_tim.c **** void HAL_ResumeTick(void)
 118:Core/Src/stm32h7xx_hal_timebase_tim.c **** {
 222              		.loc 1 118 1 is_stmt 1 view -0
 223              		.cfi_startproc
 224              		@ args = 0, pretend = 0, frame = 0
 225              		@ frame_needed = 0, uses_anonymous_args = 0
 226              		@ link register save eliminated.
 119:Core/Src/stm32h7xx_hal_timebase_tim.c ****   /* Enable TIM1 Update interrupt */
 120:Core/Src/stm32h7xx_hal_timebase_tim.c ****   __HAL_TIM_ENABLE_IT(&htim1, TIM_IT_UPDATE);
 227              		.loc 1 120 3 view .LVU61
 228 0000 034B     		ldr	r3, .L16
 229 0002 1A68     		ldr	r2, [r3]
 230 0004 D368     		ldr	r3, [r2, #12]
 231 0006 43F00103 		orr	r3, r3, #1
 232 000a D360     		str	r3, [r2, #12]
 121:Core/Src/stm32h7xx_hal_timebase_tim.c **** }
 233              		.loc 1 121 1 is_stmt 0 view .LVU62
 234 000c 7047     		bx	lr
 235              	.L17:
 236 000e 00BF     		.align	2
ARM GAS  C:\Users\Simon\AppData\Local\Temp\cca6nQ8B.s 			page 8


 237              	.L16:
 238 0010 00000000 		.word	.LANCHOR0
 239              		.cfi_endproc
 240              	.LFE146:
 242              		.global	htim1
 243              		.section	.bss.htim1,"aw",%nobits
 244              		.align	2
 245              		.set	.LANCHOR0,. + 0
 248              	htim1:
 249 0000 00000000 		.space	76
 249      00000000 
 249      00000000 
 249      00000000 
 249      00000000 
 250              		.text
 251              	.Letext0:
 252              		.file 2 "Drivers/CMSIS/Device/ST/STM32H7xx/Include/stm32h743xx.h"
 253              		.file 3 "c:\\program files (x86)\\arm gnu toolchain arm-none-eabi\\11.2 2022.02\\arm-none-eabi\\in
 254              		.file 4 "c:\\program files (x86)\\arm gnu toolchain arm-none-eabi\\11.2 2022.02\\arm-none-eabi\\in
 255              		.file 5 "Drivers/STM32H7xx_HAL_Driver/Inc/stm32h7xx_hal_def.h"
 256              		.file 6 "Drivers/STM32H7xx_HAL_Driver/Inc/stm32h7xx_hal_rcc.h"
 257              		.file 7 "Drivers/STM32H7xx_HAL_Driver/Inc/stm32h7xx_hal_dma.h"
 258              		.file 8 "Drivers/STM32H7xx_HAL_Driver/Inc/stm32h7xx_hal_tim.h"
 259              		.file 9 "Drivers/STM32H7xx_HAL_Driver/Inc/stm32h7xx_hal.h"
 260              		.file 10 "Drivers/STM32H7xx_HAL_Driver/Inc/stm32h7xx_hal_cortex.h"
ARM GAS  C:\Users\Simon\AppData\Local\Temp\cca6nQ8B.s 			page 9

