ARM GAS  C:\Users\Simon\AppData\Local\Temp\ccLenkVj.s 			page 1


   1              		.cpu cortex-m7
   2              		.arch armv7e-m
   3              		.fpu fpv5-d16
   4              		.eabi_attribute 28, 1
   5              		.eabi_attribute 20, 1
   6              		.eabi_attribute 21, 1
   7              		.eabi_attribute 23, 3
   8              		.eabi_attribute 24, 1
   9              		.eabi_attribute 25, 1
  10              		.eabi_attribute 26, 1
  11              		.eabi_attribute 30, 2
  12              		.eabi_attribute 34, 1
  13              		.eabi_attribute 18, 4
  14              		.file	"stm32h7xx_hal_gpio.c"
  15              		.text
  16              	.Ltext0:
  17              		.cfi_sections	.debug_frame
  18              		.section	.text.HAL_GPIO_Init,"ax",%progbits
  19              		.align	1
  20              		.p2align 2,,3
  21              		.global	HAL_GPIO_Init
  22              		.syntax unified
  23              		.thumb
  24              		.thumb_func
  26              	HAL_GPIO_Init:
  27              	.LVL0:
  28              	.LFB144:
  29              		.file 1 "Drivers/STM32H7xx_HAL_Driver/Src/stm32h7xx_hal_gpio.c"
   1:Drivers/STM32H7xx_HAL_Driver/Src/stm32h7xx_hal_gpio.c **** /**
   2:Drivers/STM32H7xx_HAL_Driver/Src/stm32h7xx_hal_gpio.c ****   ******************************************************************************
   3:Drivers/STM32H7xx_HAL_Driver/Src/stm32h7xx_hal_gpio.c ****   * @file    stm32h7xx_hal_gpio.c
   4:Drivers/STM32H7xx_HAL_Driver/Src/stm32h7xx_hal_gpio.c ****   * @author  MCD Application Team
   5:Drivers/STM32H7xx_HAL_Driver/Src/stm32h7xx_hal_gpio.c ****   * @brief   GPIO HAL module driver.
   6:Drivers/STM32H7xx_HAL_Driver/Src/stm32h7xx_hal_gpio.c ****   *          This file provides firmware functions to manage the following
   7:Drivers/STM32H7xx_HAL_Driver/Src/stm32h7xx_hal_gpio.c ****   *          functionalities of the General Purpose Input/Output (GPIO) peripheral:
   8:Drivers/STM32H7xx_HAL_Driver/Src/stm32h7xx_hal_gpio.c ****   *           + Initialization and de-initialization functions
   9:Drivers/STM32H7xx_HAL_Driver/Src/stm32h7xx_hal_gpio.c ****   *           + IO operation functions
  10:Drivers/STM32H7xx_HAL_Driver/Src/stm32h7xx_hal_gpio.c ****   *
  11:Drivers/STM32H7xx_HAL_Driver/Src/stm32h7xx_hal_gpio.c ****   ******************************************************************************
  12:Drivers/STM32H7xx_HAL_Driver/Src/stm32h7xx_hal_gpio.c ****   * @attention
  13:Drivers/STM32H7xx_HAL_Driver/Src/stm32h7xx_hal_gpio.c ****   *
  14:Drivers/STM32H7xx_HAL_Driver/Src/stm32h7xx_hal_gpio.c ****   * Copyright (c) 2017 STMicroelectronics.
  15:Drivers/STM32H7xx_HAL_Driver/Src/stm32h7xx_hal_gpio.c ****   * All rights reserved.
  16:Drivers/STM32H7xx_HAL_Driver/Src/stm32h7xx_hal_gpio.c ****   *
  17:Drivers/STM32H7xx_HAL_Driver/Src/stm32h7xx_hal_gpio.c ****   * This software is licensed under terms that can be found in the LICENSE file
  18:Drivers/STM32H7xx_HAL_Driver/Src/stm32h7xx_hal_gpio.c ****   * in the root directory of this software component.
  19:Drivers/STM32H7xx_HAL_Driver/Src/stm32h7xx_hal_gpio.c ****   * If no LICENSE file comes with this software, it is provided AS-IS.
  20:Drivers/STM32H7xx_HAL_Driver/Src/stm32h7xx_hal_gpio.c ****   *
  21:Drivers/STM32H7xx_HAL_Driver/Src/stm32h7xx_hal_gpio.c ****   ******************************************************************************
  22:Drivers/STM32H7xx_HAL_Driver/Src/stm32h7xx_hal_gpio.c ****   @verbatim
  23:Drivers/STM32H7xx_HAL_Driver/Src/stm32h7xx_hal_gpio.c ****   ==============================================================================
  24:Drivers/STM32H7xx_HAL_Driver/Src/stm32h7xx_hal_gpio.c ****                     ##### GPIO Peripheral features #####
  25:Drivers/STM32H7xx_HAL_Driver/Src/stm32h7xx_hal_gpio.c ****   ==============================================================================
  26:Drivers/STM32H7xx_HAL_Driver/Src/stm32h7xx_hal_gpio.c ****   [..]
  27:Drivers/STM32H7xx_HAL_Driver/Src/stm32h7xx_hal_gpio.c ****     (+) Each port bit of the general-purpose I/O (GPIO) ports can be individually
  28:Drivers/STM32H7xx_HAL_Driver/Src/stm32h7xx_hal_gpio.c ****         configured by software in several modes:
  29:Drivers/STM32H7xx_HAL_Driver/Src/stm32h7xx_hal_gpio.c ****         (++) Input mode
ARM GAS  C:\Users\Simon\AppData\Local\Temp\ccLenkVj.s 			page 2


  30:Drivers/STM32H7xx_HAL_Driver/Src/stm32h7xx_hal_gpio.c ****         (++) Analog mode
  31:Drivers/STM32H7xx_HAL_Driver/Src/stm32h7xx_hal_gpio.c ****         (++) Output mode
  32:Drivers/STM32H7xx_HAL_Driver/Src/stm32h7xx_hal_gpio.c ****         (++) Alternate function mode
  33:Drivers/STM32H7xx_HAL_Driver/Src/stm32h7xx_hal_gpio.c ****         (++) External interrupt/event lines
  34:Drivers/STM32H7xx_HAL_Driver/Src/stm32h7xx_hal_gpio.c **** 
  35:Drivers/STM32H7xx_HAL_Driver/Src/stm32h7xx_hal_gpio.c ****     (+) During and just after reset, the alternate functions and external interrupt
  36:Drivers/STM32H7xx_HAL_Driver/Src/stm32h7xx_hal_gpio.c ****         lines are not active and the I/O ports are configured in input floating mode.
  37:Drivers/STM32H7xx_HAL_Driver/Src/stm32h7xx_hal_gpio.c **** 
  38:Drivers/STM32H7xx_HAL_Driver/Src/stm32h7xx_hal_gpio.c ****     (+) All GPIO pins have weak internal pull-up and pull-down resistors, which can be
  39:Drivers/STM32H7xx_HAL_Driver/Src/stm32h7xx_hal_gpio.c ****         activated or not.
  40:Drivers/STM32H7xx_HAL_Driver/Src/stm32h7xx_hal_gpio.c **** 
  41:Drivers/STM32H7xx_HAL_Driver/Src/stm32h7xx_hal_gpio.c ****     (+) In Output or Alternate mode, each IO can be configured on open-drain or push-pull
  42:Drivers/STM32H7xx_HAL_Driver/Src/stm32h7xx_hal_gpio.c ****         type and the IO speed can be selected depending on the VDD value.
  43:Drivers/STM32H7xx_HAL_Driver/Src/stm32h7xx_hal_gpio.c **** 
  44:Drivers/STM32H7xx_HAL_Driver/Src/stm32h7xx_hal_gpio.c ****     (+) The microcontroller IO pins are connected to onboard peripherals/modules through a
  45:Drivers/STM32H7xx_HAL_Driver/Src/stm32h7xx_hal_gpio.c ****         multiplexer that allows only one peripheral alternate function (AF) connected
  46:Drivers/STM32H7xx_HAL_Driver/Src/stm32h7xx_hal_gpio.c ****        to an IO pin at a time. In this way, there can be no conflict between peripherals
  47:Drivers/STM32H7xx_HAL_Driver/Src/stm32h7xx_hal_gpio.c ****        sharing the same IO pin.
  48:Drivers/STM32H7xx_HAL_Driver/Src/stm32h7xx_hal_gpio.c **** 
  49:Drivers/STM32H7xx_HAL_Driver/Src/stm32h7xx_hal_gpio.c ****     (+) All ports have external interrupt/event capability. To use external interrupt
  50:Drivers/STM32H7xx_HAL_Driver/Src/stm32h7xx_hal_gpio.c ****         lines, the port must be configured in input mode. All available GPIO pins are
  51:Drivers/STM32H7xx_HAL_Driver/Src/stm32h7xx_hal_gpio.c ****         connected to the 16 external interrupt/event lines from EXTI0 to EXTI15.
  52:Drivers/STM32H7xx_HAL_Driver/Src/stm32h7xx_hal_gpio.c **** 
  53:Drivers/STM32H7xx_HAL_Driver/Src/stm32h7xx_hal_gpio.c ****   The external interrupt/event controller consists of up to 23 edge detectors
  54:Drivers/STM32H7xx_HAL_Driver/Src/stm32h7xx_hal_gpio.c ****         (16 lines are connected to GPIO) for generating event/interrupt requests (each
  55:Drivers/STM32H7xx_HAL_Driver/Src/stm32h7xx_hal_gpio.c ****         input line can be independently configured to select the type (interrupt or event)
  56:Drivers/STM32H7xx_HAL_Driver/Src/stm32h7xx_hal_gpio.c ****         and the corresponding trigger event (rising or falling or both). Each line can
  57:Drivers/STM32H7xx_HAL_Driver/Src/stm32h7xx_hal_gpio.c ****         also be masked independently.
  58:Drivers/STM32H7xx_HAL_Driver/Src/stm32h7xx_hal_gpio.c **** 
  59:Drivers/STM32H7xx_HAL_Driver/Src/stm32h7xx_hal_gpio.c ****                      ##### How to use this driver #####
  60:Drivers/STM32H7xx_HAL_Driver/Src/stm32h7xx_hal_gpio.c ****   ==============================================================================
  61:Drivers/STM32H7xx_HAL_Driver/Src/stm32h7xx_hal_gpio.c ****   [..]
  62:Drivers/STM32H7xx_HAL_Driver/Src/stm32h7xx_hal_gpio.c ****     (#) Enable the GPIO AHB clock using the following function: __HAL_RCC_GPIOx_CLK_ENABLE().
  63:Drivers/STM32H7xx_HAL_Driver/Src/stm32h7xx_hal_gpio.c **** 
  64:Drivers/STM32H7xx_HAL_Driver/Src/stm32h7xx_hal_gpio.c ****     (#) Configure the GPIO pin(s) using HAL_GPIO_Init().
  65:Drivers/STM32H7xx_HAL_Driver/Src/stm32h7xx_hal_gpio.c ****         (++) Configure the IO mode using "Mode" member from GPIO_InitTypeDef structure
  66:Drivers/STM32H7xx_HAL_Driver/Src/stm32h7xx_hal_gpio.c ****         (++) Activate Pull-up, Pull-down resistor using "Pull" member from GPIO_InitTypeDef
  67:Drivers/STM32H7xx_HAL_Driver/Src/stm32h7xx_hal_gpio.c ****              structure.
  68:Drivers/STM32H7xx_HAL_Driver/Src/stm32h7xx_hal_gpio.c ****         (++) In case of Output or alternate function mode selection: the speed is
  69:Drivers/STM32H7xx_HAL_Driver/Src/stm32h7xx_hal_gpio.c ****              configured through "Speed" member from GPIO_InitTypeDef structure.
  70:Drivers/STM32H7xx_HAL_Driver/Src/stm32h7xx_hal_gpio.c ****         (++) In alternate mode is selection, the alternate function connected to the IO
  71:Drivers/STM32H7xx_HAL_Driver/Src/stm32h7xx_hal_gpio.c ****              is configured through "Alternate" member from GPIO_InitTypeDef structure.
  72:Drivers/STM32H7xx_HAL_Driver/Src/stm32h7xx_hal_gpio.c ****         (++) Analog mode is required when a pin is to be used as ADC channel
  73:Drivers/STM32H7xx_HAL_Driver/Src/stm32h7xx_hal_gpio.c ****              or DAC output.
  74:Drivers/STM32H7xx_HAL_Driver/Src/stm32h7xx_hal_gpio.c ****         (++) In case of external interrupt/event selection the "Mode" member from
  75:Drivers/STM32H7xx_HAL_Driver/Src/stm32h7xx_hal_gpio.c ****              GPIO_InitTypeDef structure select the type (interrupt or event) and
  76:Drivers/STM32H7xx_HAL_Driver/Src/stm32h7xx_hal_gpio.c ****              the corresponding trigger event (rising or falling or both).
  77:Drivers/STM32H7xx_HAL_Driver/Src/stm32h7xx_hal_gpio.c **** 
  78:Drivers/STM32H7xx_HAL_Driver/Src/stm32h7xx_hal_gpio.c ****     (#) In case of external interrupt/event mode selection, configure NVIC IRQ priority
  79:Drivers/STM32H7xx_HAL_Driver/Src/stm32h7xx_hal_gpio.c ****         mapped to the EXTI line using HAL_NVIC_SetPriority() and enable it using
  80:Drivers/STM32H7xx_HAL_Driver/Src/stm32h7xx_hal_gpio.c ****         HAL_NVIC_EnableIRQ().
  81:Drivers/STM32H7xx_HAL_Driver/Src/stm32h7xx_hal_gpio.c **** 
  82:Drivers/STM32H7xx_HAL_Driver/Src/stm32h7xx_hal_gpio.c ****     (#) To get the level of a pin configured in input mode use HAL_GPIO_ReadPin().
  83:Drivers/STM32H7xx_HAL_Driver/Src/stm32h7xx_hal_gpio.c **** 
  84:Drivers/STM32H7xx_HAL_Driver/Src/stm32h7xx_hal_gpio.c ****     (#) To set/reset the level of a pin configured in output mode use
  85:Drivers/STM32H7xx_HAL_Driver/Src/stm32h7xx_hal_gpio.c ****         HAL_GPIO_WritePin()/HAL_GPIO_TogglePin().
  86:Drivers/STM32H7xx_HAL_Driver/Src/stm32h7xx_hal_gpio.c **** 
ARM GAS  C:\Users\Simon\AppData\Local\Temp\ccLenkVj.s 			page 3


  87:Drivers/STM32H7xx_HAL_Driver/Src/stm32h7xx_hal_gpio.c ****    (#) To lock pin configuration until next reset use HAL_GPIO_LockPin().
  88:Drivers/STM32H7xx_HAL_Driver/Src/stm32h7xx_hal_gpio.c **** 
  89:Drivers/STM32H7xx_HAL_Driver/Src/stm32h7xx_hal_gpio.c **** 
  90:Drivers/STM32H7xx_HAL_Driver/Src/stm32h7xx_hal_gpio.c ****     (#) During and just after reset, the alternate functions are not
  91:Drivers/STM32H7xx_HAL_Driver/Src/stm32h7xx_hal_gpio.c ****         active and the GPIO pins are configured in input floating mode (except JTAG
  92:Drivers/STM32H7xx_HAL_Driver/Src/stm32h7xx_hal_gpio.c ****         pins).
  93:Drivers/STM32H7xx_HAL_Driver/Src/stm32h7xx_hal_gpio.c **** 
  94:Drivers/STM32H7xx_HAL_Driver/Src/stm32h7xx_hal_gpio.c ****     (#) The LSE oscillator pins OSC32_IN and OSC32_OUT can be used as general purpose
  95:Drivers/STM32H7xx_HAL_Driver/Src/stm32h7xx_hal_gpio.c ****         (PC14 and PC15, respectively) when the LSE oscillator is off. The LSE has
  96:Drivers/STM32H7xx_HAL_Driver/Src/stm32h7xx_hal_gpio.c ****         priority over the GPIO function.
  97:Drivers/STM32H7xx_HAL_Driver/Src/stm32h7xx_hal_gpio.c **** 
  98:Drivers/STM32H7xx_HAL_Driver/Src/stm32h7xx_hal_gpio.c ****     (#) The HSE oscillator pins OSC_IN/OSC_OUT can be used as
  99:Drivers/STM32H7xx_HAL_Driver/Src/stm32h7xx_hal_gpio.c ****         general purpose PH0 and PH1, respectively, when the HSE oscillator is off.
 100:Drivers/STM32H7xx_HAL_Driver/Src/stm32h7xx_hal_gpio.c ****         The HSE has priority over the GPIO function.
 101:Drivers/STM32H7xx_HAL_Driver/Src/stm32h7xx_hal_gpio.c **** 
 102:Drivers/STM32H7xx_HAL_Driver/Src/stm32h7xx_hal_gpio.c ****   @endverbatim
 103:Drivers/STM32H7xx_HAL_Driver/Src/stm32h7xx_hal_gpio.c ****   ******************************************************************************
 104:Drivers/STM32H7xx_HAL_Driver/Src/stm32h7xx_hal_gpio.c ****   */
 105:Drivers/STM32H7xx_HAL_Driver/Src/stm32h7xx_hal_gpio.c **** 
 106:Drivers/STM32H7xx_HAL_Driver/Src/stm32h7xx_hal_gpio.c **** /* Includes ------------------------------------------------------------------*/
 107:Drivers/STM32H7xx_HAL_Driver/Src/stm32h7xx_hal_gpio.c **** #include "stm32h7xx_hal.h"
 108:Drivers/STM32H7xx_HAL_Driver/Src/stm32h7xx_hal_gpio.c **** 
 109:Drivers/STM32H7xx_HAL_Driver/Src/stm32h7xx_hal_gpio.c **** /** @addtogroup STM32H7xx_HAL_Driver
 110:Drivers/STM32H7xx_HAL_Driver/Src/stm32h7xx_hal_gpio.c ****   * @{
 111:Drivers/STM32H7xx_HAL_Driver/Src/stm32h7xx_hal_gpio.c ****   */
 112:Drivers/STM32H7xx_HAL_Driver/Src/stm32h7xx_hal_gpio.c **** 
 113:Drivers/STM32H7xx_HAL_Driver/Src/stm32h7xx_hal_gpio.c **** /** @defgroup GPIO  GPIO
 114:Drivers/STM32H7xx_HAL_Driver/Src/stm32h7xx_hal_gpio.c ****   * @brief GPIO HAL module driver
 115:Drivers/STM32H7xx_HAL_Driver/Src/stm32h7xx_hal_gpio.c ****   * @{
 116:Drivers/STM32H7xx_HAL_Driver/Src/stm32h7xx_hal_gpio.c ****   */
 117:Drivers/STM32H7xx_HAL_Driver/Src/stm32h7xx_hal_gpio.c **** 
 118:Drivers/STM32H7xx_HAL_Driver/Src/stm32h7xx_hal_gpio.c **** #ifdef HAL_GPIO_MODULE_ENABLED
 119:Drivers/STM32H7xx_HAL_Driver/Src/stm32h7xx_hal_gpio.c **** 
 120:Drivers/STM32H7xx_HAL_Driver/Src/stm32h7xx_hal_gpio.c **** /* Private typedef -----------------------------------------------------------*/
 121:Drivers/STM32H7xx_HAL_Driver/Src/stm32h7xx_hal_gpio.c **** /* Private defines ------------------------------------------------------------*/
 122:Drivers/STM32H7xx_HAL_Driver/Src/stm32h7xx_hal_gpio.c **** /** @addtogroup GPIO_Private_Constants GPIO Private Constants
 123:Drivers/STM32H7xx_HAL_Driver/Src/stm32h7xx_hal_gpio.c ****   * @{
 124:Drivers/STM32H7xx_HAL_Driver/Src/stm32h7xx_hal_gpio.c ****   */
 125:Drivers/STM32H7xx_HAL_Driver/Src/stm32h7xx_hal_gpio.c **** 
 126:Drivers/STM32H7xx_HAL_Driver/Src/stm32h7xx_hal_gpio.c **** #if defined(DUAL_CORE)
 127:Drivers/STM32H7xx_HAL_Driver/Src/stm32h7xx_hal_gpio.c **** #define EXTI_CPU1             (0x01000000U)
 128:Drivers/STM32H7xx_HAL_Driver/Src/stm32h7xx_hal_gpio.c **** #define EXTI_CPU2             (0x02000000U)
 129:Drivers/STM32H7xx_HAL_Driver/Src/stm32h7xx_hal_gpio.c **** #endif /*DUAL_CORE*/
 130:Drivers/STM32H7xx_HAL_Driver/Src/stm32h7xx_hal_gpio.c **** #define GPIO_NUMBER           (16U)
 131:Drivers/STM32H7xx_HAL_Driver/Src/stm32h7xx_hal_gpio.c **** /**
 132:Drivers/STM32H7xx_HAL_Driver/Src/stm32h7xx_hal_gpio.c ****   * @}
 133:Drivers/STM32H7xx_HAL_Driver/Src/stm32h7xx_hal_gpio.c ****   */
 134:Drivers/STM32H7xx_HAL_Driver/Src/stm32h7xx_hal_gpio.c **** /* Private macro -------------------------------------------------------------*/
 135:Drivers/STM32H7xx_HAL_Driver/Src/stm32h7xx_hal_gpio.c **** /* Private variables ---------------------------------------------------------*/
 136:Drivers/STM32H7xx_HAL_Driver/Src/stm32h7xx_hal_gpio.c **** /* Private function prototypes -----------------------------------------------*/
 137:Drivers/STM32H7xx_HAL_Driver/Src/stm32h7xx_hal_gpio.c **** /* Private functions ---------------------------------------------------------*/
 138:Drivers/STM32H7xx_HAL_Driver/Src/stm32h7xx_hal_gpio.c **** /* Exported functions --------------------------------------------------------*/
 139:Drivers/STM32H7xx_HAL_Driver/Src/stm32h7xx_hal_gpio.c **** /** @defgroup GPIO_Exported_Functions GPIO Exported Functions
 140:Drivers/STM32H7xx_HAL_Driver/Src/stm32h7xx_hal_gpio.c ****   * @{
 141:Drivers/STM32H7xx_HAL_Driver/Src/stm32h7xx_hal_gpio.c ****   */
 142:Drivers/STM32H7xx_HAL_Driver/Src/stm32h7xx_hal_gpio.c **** 
 143:Drivers/STM32H7xx_HAL_Driver/Src/stm32h7xx_hal_gpio.c **** /** @defgroup GPIO_Exported_Functions_Group1 Initialization and de-initialization functions
ARM GAS  C:\Users\Simon\AppData\Local\Temp\ccLenkVj.s 			page 4


 144:Drivers/STM32H7xx_HAL_Driver/Src/stm32h7xx_hal_gpio.c ****  *  @brief    Initialization and Configuration functions
 145:Drivers/STM32H7xx_HAL_Driver/Src/stm32h7xx_hal_gpio.c ****  *
 146:Drivers/STM32H7xx_HAL_Driver/Src/stm32h7xx_hal_gpio.c **** @verbatim
 147:Drivers/STM32H7xx_HAL_Driver/Src/stm32h7xx_hal_gpio.c ****  ===============================================================================
 148:Drivers/STM32H7xx_HAL_Driver/Src/stm32h7xx_hal_gpio.c ****               ##### Initialization and de-initialization functions #####
 149:Drivers/STM32H7xx_HAL_Driver/Src/stm32h7xx_hal_gpio.c ****  ===============================================================================
 150:Drivers/STM32H7xx_HAL_Driver/Src/stm32h7xx_hal_gpio.c ****   [..]
 151:Drivers/STM32H7xx_HAL_Driver/Src/stm32h7xx_hal_gpio.c ****     This section provides functions allowing to initialize and de-initialize the GPIOs
 152:Drivers/STM32H7xx_HAL_Driver/Src/stm32h7xx_hal_gpio.c ****     to be ready for use.
 153:Drivers/STM32H7xx_HAL_Driver/Src/stm32h7xx_hal_gpio.c **** 
 154:Drivers/STM32H7xx_HAL_Driver/Src/stm32h7xx_hal_gpio.c **** @endverbatim
 155:Drivers/STM32H7xx_HAL_Driver/Src/stm32h7xx_hal_gpio.c ****   * @{
 156:Drivers/STM32H7xx_HAL_Driver/Src/stm32h7xx_hal_gpio.c ****   */
 157:Drivers/STM32H7xx_HAL_Driver/Src/stm32h7xx_hal_gpio.c **** 
 158:Drivers/STM32H7xx_HAL_Driver/Src/stm32h7xx_hal_gpio.c **** /**
 159:Drivers/STM32H7xx_HAL_Driver/Src/stm32h7xx_hal_gpio.c ****   * @brief  Initializes the GPIOx peripheral according to the specified parameters in the GPIO_Init
 160:Drivers/STM32H7xx_HAL_Driver/Src/stm32h7xx_hal_gpio.c ****   * @param  GPIOx: where x can be (A..K) to select the GPIO peripheral.
 161:Drivers/STM32H7xx_HAL_Driver/Src/stm32h7xx_hal_gpio.c ****   * @param  GPIO_Init: pointer to a GPIO_InitTypeDef structure that contains
 162:Drivers/STM32H7xx_HAL_Driver/Src/stm32h7xx_hal_gpio.c ****   *         the configuration information for the specified GPIO peripheral.
 163:Drivers/STM32H7xx_HAL_Driver/Src/stm32h7xx_hal_gpio.c ****   * @retval None
 164:Drivers/STM32H7xx_HAL_Driver/Src/stm32h7xx_hal_gpio.c ****   */
 165:Drivers/STM32H7xx_HAL_Driver/Src/stm32h7xx_hal_gpio.c **** void HAL_GPIO_Init(GPIO_TypeDef  *GPIOx, GPIO_InitTypeDef *GPIO_Init)
 166:Drivers/STM32H7xx_HAL_Driver/Src/stm32h7xx_hal_gpio.c **** {
  30              		.loc 1 166 1 view -0
  31              		.cfi_startproc
  32              		@ args = 0, pretend = 0, frame = 8
  33              		@ frame_needed = 0, uses_anonymous_args = 0
 167:Drivers/STM32H7xx_HAL_Driver/Src/stm32h7xx_hal_gpio.c ****   uint32_t position = 0x00U;
  34              		.loc 1 167 3 view .LVU1
 168:Drivers/STM32H7xx_HAL_Driver/Src/stm32h7xx_hal_gpio.c ****   uint32_t iocurrent;
  35              		.loc 1 168 3 view .LVU2
 169:Drivers/STM32H7xx_HAL_Driver/Src/stm32h7xx_hal_gpio.c ****   uint32_t temp;
  36              		.loc 1 169 3 view .LVU3
 170:Drivers/STM32H7xx_HAL_Driver/Src/stm32h7xx_hal_gpio.c ****   EXTI_Core_TypeDef *EXTI_CurrentCPU;
  37              		.loc 1 170 3 view .LVU4
 171:Drivers/STM32H7xx_HAL_Driver/Src/stm32h7xx_hal_gpio.c **** 
 172:Drivers/STM32H7xx_HAL_Driver/Src/stm32h7xx_hal_gpio.c **** #if defined(DUAL_CORE) && defined(CORE_CM4)
 173:Drivers/STM32H7xx_HAL_Driver/Src/stm32h7xx_hal_gpio.c ****   EXTI_CurrentCPU = EXTI_D2; /* EXTI for CM4 CPU */
 174:Drivers/STM32H7xx_HAL_Driver/Src/stm32h7xx_hal_gpio.c **** #else
 175:Drivers/STM32H7xx_HAL_Driver/Src/stm32h7xx_hal_gpio.c ****   EXTI_CurrentCPU = EXTI_D1; /* EXTI for CM7 CPU */
  38              		.loc 1 175 3 view .LVU5
 176:Drivers/STM32H7xx_HAL_Driver/Src/stm32h7xx_hal_gpio.c **** #endif
 177:Drivers/STM32H7xx_HAL_Driver/Src/stm32h7xx_hal_gpio.c **** 
 178:Drivers/STM32H7xx_HAL_Driver/Src/stm32h7xx_hal_gpio.c ****   /* Check the parameters */
 179:Drivers/STM32H7xx_HAL_Driver/Src/stm32h7xx_hal_gpio.c ****   assert_param(IS_GPIO_ALL_INSTANCE(GPIOx));
  39              		.loc 1 179 3 view .LVU6
 180:Drivers/STM32H7xx_HAL_Driver/Src/stm32h7xx_hal_gpio.c ****   assert_param(IS_GPIO_PIN(GPIO_Init->Pin));
  40              		.loc 1 180 3 view .LVU7
 181:Drivers/STM32H7xx_HAL_Driver/Src/stm32h7xx_hal_gpio.c ****   assert_param(IS_GPIO_MODE(GPIO_Init->Mode));
  41              		.loc 1 181 3 view .LVU8
 182:Drivers/STM32H7xx_HAL_Driver/Src/stm32h7xx_hal_gpio.c **** 
 183:Drivers/STM32H7xx_HAL_Driver/Src/stm32h7xx_hal_gpio.c ****   /* Configure the port pins */
 184:Drivers/STM32H7xx_HAL_Driver/Src/stm32h7xx_hal_gpio.c ****   while (((GPIO_Init->Pin) >> position) != 0x00U)
  42              		.loc 1 184 3 view .LVU9
  43              		.loc 1 184 41 view .LVU10
 166:Drivers/STM32H7xx_HAL_Driver/Src/stm32h7xx_hal_gpio.c ****   uint32_t position = 0x00U;
  44              		.loc 1 166 1 is_stmt 0 view .LVU11
ARM GAS  C:\Users\Simon\AppData\Local\Temp\ccLenkVj.s 			page 5


  45 0000 2DE9F04F 		push	{r4, r5, r6, r7, r8, r9, r10, fp, lr}
  46              	.LCFI0:
  47              		.cfi_def_cfa_offset 36
  48              		.cfi_offset 4, -36
  49              		.cfi_offset 5, -32
  50              		.cfi_offset 6, -28
  51              		.cfi_offset 7, -24
  52              		.cfi_offset 8, -20
  53              		.cfi_offset 9, -16
  54              		.cfi_offset 10, -12
  55              		.cfi_offset 11, -8
  56              		.cfi_offset 14, -4
  57              		.loc 1 184 21 view .LVU12
  58 0004 0C68     		ldr	r4, [r1]
 166:Drivers/STM32H7xx_HAL_Driver/Src/stm32h7xx_hal_gpio.c ****   uint32_t position = 0x00U;
  59              		.loc 1 166 1 view .LVU13
  60 0006 83B0     		sub	sp, sp, #12
  61              	.LCFI1:
  62              		.cfi_def_cfa_offset 48
  63              		.loc 1 184 41 view .LVU14
  64 0008 002C     		cmp	r4, #0
  65 000a 00F0A780 		beq	.L1
  66 000e 4FF0000C 		mov	ip, #0
  67              	.LBB2:
 185:Drivers/STM32H7xx_HAL_Driver/Src/stm32h7xx_hal_gpio.c ****   {
 186:Drivers/STM32H7xx_HAL_Driver/Src/stm32h7xx_hal_gpio.c ****     /* Get current io position */
 187:Drivers/STM32H7xx_HAL_Driver/Src/stm32h7xx_hal_gpio.c ****     iocurrent = (GPIO_Init->Pin) & (1UL << position);
 188:Drivers/STM32H7xx_HAL_Driver/Src/stm32h7xx_hal_gpio.c **** 
 189:Drivers/STM32H7xx_HAL_Driver/Src/stm32h7xx_hal_gpio.c ****     if (iocurrent != 0x00U)
 190:Drivers/STM32H7xx_HAL_Driver/Src/stm32h7xx_hal_gpio.c ****     {
 191:Drivers/STM32H7xx_HAL_Driver/Src/stm32h7xx_hal_gpio.c ****       /*--------------------- GPIO Mode Configuration ------------------------*/
 192:Drivers/STM32H7xx_HAL_Driver/Src/stm32h7xx_hal_gpio.c ****       /* In case of Output or Alternate function mode selection */
 193:Drivers/STM32H7xx_HAL_Driver/Src/stm32h7xx_hal_gpio.c ****       if (((GPIO_Init->Mode & GPIO_MODE) == MODE_OUTPUT) || ((GPIO_Init->Mode & GPIO_MODE) == MODE_
 194:Drivers/STM32H7xx_HAL_Driver/Src/stm32h7xx_hal_gpio.c ****       {
 195:Drivers/STM32H7xx_HAL_Driver/Src/stm32h7xx_hal_gpio.c ****         /* Check the Speed parameter */
 196:Drivers/STM32H7xx_HAL_Driver/Src/stm32h7xx_hal_gpio.c ****         assert_param(IS_GPIO_SPEED(GPIO_Init->Speed));
 197:Drivers/STM32H7xx_HAL_Driver/Src/stm32h7xx_hal_gpio.c **** 
 198:Drivers/STM32H7xx_HAL_Driver/Src/stm32h7xx_hal_gpio.c ****         /* Configure the IO Speed */
 199:Drivers/STM32H7xx_HAL_Driver/Src/stm32h7xx_hal_gpio.c ****         temp = GPIOx->OSPEEDR;
 200:Drivers/STM32H7xx_HAL_Driver/Src/stm32h7xx_hal_gpio.c ****         temp &= ~(GPIO_OSPEEDR_OSPEED0 << (position * 2U));
 201:Drivers/STM32H7xx_HAL_Driver/Src/stm32h7xx_hal_gpio.c ****         temp |= (GPIO_Init->Speed << (position * 2U));
 202:Drivers/STM32H7xx_HAL_Driver/Src/stm32h7xx_hal_gpio.c ****         GPIOx->OSPEEDR = temp;
 203:Drivers/STM32H7xx_HAL_Driver/Src/stm32h7xx_hal_gpio.c **** 
 204:Drivers/STM32H7xx_HAL_Driver/Src/stm32h7xx_hal_gpio.c ****         /* Configure the IO Output Type */
 205:Drivers/STM32H7xx_HAL_Driver/Src/stm32h7xx_hal_gpio.c ****         temp = GPIOx->OTYPER;
 206:Drivers/STM32H7xx_HAL_Driver/Src/stm32h7xx_hal_gpio.c ****         temp &= ~(GPIO_OTYPER_OT0 << position) ;
 207:Drivers/STM32H7xx_HAL_Driver/Src/stm32h7xx_hal_gpio.c ****         temp |= (((GPIO_Init->Mode & OUTPUT_TYPE) >> OUTPUT_TYPE_Pos) << position);
 208:Drivers/STM32H7xx_HAL_Driver/Src/stm32h7xx_hal_gpio.c ****         GPIOx->OTYPER = temp;
 209:Drivers/STM32H7xx_HAL_Driver/Src/stm32h7xx_hal_gpio.c ****       }
 210:Drivers/STM32H7xx_HAL_Driver/Src/stm32h7xx_hal_gpio.c **** 
 211:Drivers/STM32H7xx_HAL_Driver/Src/stm32h7xx_hal_gpio.c ****       if ((GPIO_Init->Mode & GPIO_MODE) != MODE_ANALOG)
 212:Drivers/STM32H7xx_HAL_Driver/Src/stm32h7xx_hal_gpio.c ****       {
 213:Drivers/STM32H7xx_HAL_Driver/Src/stm32h7xx_hal_gpio.c ****        /* Check the Pull parameter */
 214:Drivers/STM32H7xx_HAL_Driver/Src/stm32h7xx_hal_gpio.c ****        assert_param(IS_GPIO_PULL(GPIO_Init->Pull));
 215:Drivers/STM32H7xx_HAL_Driver/Src/stm32h7xx_hal_gpio.c **** 
 216:Drivers/STM32H7xx_HAL_Driver/Src/stm32h7xx_hal_gpio.c ****       /* Activate the Pull-up or Pull down resistor for the current IO */
 217:Drivers/STM32H7xx_HAL_Driver/Src/stm32h7xx_hal_gpio.c ****       temp = GPIOx->PUPDR;
ARM GAS  C:\Users\Simon\AppData\Local\Temp\ccLenkVj.s 			page 6


 218:Drivers/STM32H7xx_HAL_Driver/Src/stm32h7xx_hal_gpio.c ****       temp &= ~(GPIO_PUPDR_PUPD0 << (position * 2U));
 219:Drivers/STM32H7xx_HAL_Driver/Src/stm32h7xx_hal_gpio.c ****       temp |= ((GPIO_Init->Pull) << (position * 2U));
 220:Drivers/STM32H7xx_HAL_Driver/Src/stm32h7xx_hal_gpio.c ****       GPIOx->PUPDR = temp;
 221:Drivers/STM32H7xx_HAL_Driver/Src/stm32h7xx_hal_gpio.c ****       }
 222:Drivers/STM32H7xx_HAL_Driver/Src/stm32h7xx_hal_gpio.c **** 
 223:Drivers/STM32H7xx_HAL_Driver/Src/stm32h7xx_hal_gpio.c ****       /* In case of Alternate function mode selection */
 224:Drivers/STM32H7xx_HAL_Driver/Src/stm32h7xx_hal_gpio.c ****       if ((GPIO_Init->Mode & GPIO_MODE) == MODE_AF)
 225:Drivers/STM32H7xx_HAL_Driver/Src/stm32h7xx_hal_gpio.c ****       {
 226:Drivers/STM32H7xx_HAL_Driver/Src/stm32h7xx_hal_gpio.c ****         /* Check the Alternate function parameters */
 227:Drivers/STM32H7xx_HAL_Driver/Src/stm32h7xx_hal_gpio.c ****         assert_param(IS_GPIO_AF_INSTANCE(GPIOx));
 228:Drivers/STM32H7xx_HAL_Driver/Src/stm32h7xx_hal_gpio.c ****         assert_param(IS_GPIO_AF(GPIO_Init->Alternate));
 229:Drivers/STM32H7xx_HAL_Driver/Src/stm32h7xx_hal_gpio.c **** 
 230:Drivers/STM32H7xx_HAL_Driver/Src/stm32h7xx_hal_gpio.c ****         /* Configure Alternate function mapped with the current IO */
 231:Drivers/STM32H7xx_HAL_Driver/Src/stm32h7xx_hal_gpio.c ****         temp = GPIOx->AFR[position >> 3U];
 232:Drivers/STM32H7xx_HAL_Driver/Src/stm32h7xx_hal_gpio.c ****         temp &= ~(0xFU << ((position & 0x07U) * 4U));
 233:Drivers/STM32H7xx_HAL_Driver/Src/stm32h7xx_hal_gpio.c ****         temp |= ((GPIO_Init->Alternate) << ((position & 0x07U) * 4U));
 234:Drivers/STM32H7xx_HAL_Driver/Src/stm32h7xx_hal_gpio.c ****         GPIOx->AFR[position >> 3U] = temp;
 235:Drivers/STM32H7xx_HAL_Driver/Src/stm32h7xx_hal_gpio.c ****       }
 236:Drivers/STM32H7xx_HAL_Driver/Src/stm32h7xx_hal_gpio.c **** 
 237:Drivers/STM32H7xx_HAL_Driver/Src/stm32h7xx_hal_gpio.c ****       /* Configure IO Direction mode (Input, Output, Alternate or Analog) */
 238:Drivers/STM32H7xx_HAL_Driver/Src/stm32h7xx_hal_gpio.c ****       temp = GPIOx->MODER;
 239:Drivers/STM32H7xx_HAL_Driver/Src/stm32h7xx_hal_gpio.c ****       temp &= ~(GPIO_MODER_MODE0 << (position * 2U));
 240:Drivers/STM32H7xx_HAL_Driver/Src/stm32h7xx_hal_gpio.c ****       temp |= ((GPIO_Init->Mode & GPIO_MODE) << (position * 2U));
 241:Drivers/STM32H7xx_HAL_Driver/Src/stm32h7xx_hal_gpio.c ****       GPIOx->MODER = temp;
 242:Drivers/STM32H7xx_HAL_Driver/Src/stm32h7xx_hal_gpio.c **** 
 243:Drivers/STM32H7xx_HAL_Driver/Src/stm32h7xx_hal_gpio.c ****       /*--------------------- EXTI Mode Configuration ------------------------*/
 244:Drivers/STM32H7xx_HAL_Driver/Src/stm32h7xx_hal_gpio.c ****       /* Configure the External Interrupt or event for the current IO */
 245:Drivers/STM32H7xx_HAL_Driver/Src/stm32h7xx_hal_gpio.c ****       if ((GPIO_Init->Mode & EXTI_MODE) != 0x00U)
 246:Drivers/STM32H7xx_HAL_Driver/Src/stm32h7xx_hal_gpio.c ****       {
 247:Drivers/STM32H7xx_HAL_Driver/Src/stm32h7xx_hal_gpio.c ****         /* Enable SYSCFG Clock */
 248:Drivers/STM32H7xx_HAL_Driver/Src/stm32h7xx_hal_gpio.c ****         __HAL_RCC_SYSCFG_CLK_ENABLE();
  68              		.loc 1 248 9 view .LVU15
  69 0012 8A4F     		ldr	r7, .L47
  70              	.LBE2:
 167:Drivers/STM32H7xx_HAL_Driver/Src/stm32h7xx_hal_gpio.c ****   uint32_t iocurrent;
  71              		.loc 1 167 12 view .LVU16
  72 0014 6346     		mov	r3, ip
  73              	.LVL1:
  74              	.L2:
 187:Drivers/STM32H7xx_HAL_Driver/Src/stm32h7xx_hal_gpio.c **** 
  75              		.loc 1 187 5 is_stmt 1 view .LVU17
 187:Drivers/STM32H7xx_HAL_Driver/Src/stm32h7xx_hal_gpio.c **** 
  76              		.loc 1 187 41 is_stmt 0 view .LVU18
  77 0016 0122     		movs	r2, #1
  78 0018 9A40     		lsls	r2, r2, r3
  79              	.LVL2:
 189:Drivers/STM32H7xx_HAL_Driver/Src/stm32h7xx_hal_gpio.c ****     {
  80              		.loc 1 189 5 is_stmt 1 view .LVU19
 189:Drivers/STM32H7xx_HAL_Driver/Src/stm32h7xx_hal_gpio.c ****     {
  81              		.loc 1 189 8 is_stmt 0 view .LVU20
  82 001a 12EA040E 		ands	lr, r2, r4
  83              	.LVL3:
 189:Drivers/STM32H7xx_HAL_Driver/Src/stm32h7xx_hal_gpio.c ****     {
  84              		.loc 1 189 8 view .LVU21
  85 001e 00F09680 		beq	.L4
 193:Drivers/STM32H7xx_HAL_Driver/Src/stm32h7xx_hal_gpio.c ****       {
  86              		.loc 1 193 7 is_stmt 1 view .LVU22
ARM GAS  C:\Users\Simon\AppData\Local\Temp\ccLenkVj.s 			page 7


 193:Drivers/STM32H7xx_HAL_Driver/Src/stm32h7xx_hal_gpio.c ****       {
  87              		.loc 1 193 22 is_stmt 0 view .LVU23
  88 0022 4D68     		ldr	r5, [r1, #4]
 193:Drivers/STM32H7xx_HAL_Driver/Src/stm32h7xx_hal_gpio.c ****       {
  89              		.loc 1 193 29 view .LVU24
  90 0024 05F00309 		and	r9, r5, #3
 193:Drivers/STM32H7xx_HAL_Driver/Src/stm32h7xx_hal_gpio.c ****       {
  91              		.loc 1 193 58 view .LVU25
  92 0028 09F1FF36 		add	r6, r9, #-1
 193:Drivers/STM32H7xx_HAL_Driver/Src/stm32h7xx_hal_gpio.c ****       {
  93              		.loc 1 193 10 view .LVU26
  94 002c 012E     		cmp	r6, #1
  95 002e 40F29880 		bls	.L38
 211:Drivers/STM32H7xx_HAL_Driver/Src/stm32h7xx_hal_gpio.c ****       {
  96              		.loc 1 211 7 is_stmt 1 view .LVU27
 211:Drivers/STM32H7xx_HAL_Driver/Src/stm32h7xx_hal_gpio.c ****       {
  97              		.loc 1 211 10 is_stmt 0 view .LVU28
  98 0032 B9F1030F 		cmp	r9, #3
  99 0036 40F0D280 		bne	.L7
 200:Drivers/STM32H7xx_HAL_Driver/Src/stm32h7xx_hal_gpio.c ****         temp |= (GPIO_Init->Speed << (position * 2U));
 100              		.loc 1 200 40 view .LVU29
 101 003a 09FA0CF2 		lsl	r2, r9, ip
 200:Drivers/STM32H7xx_HAL_Driver/Src/stm32h7xx_hal_gpio.c ****         temp |= (GPIO_Init->Speed << (position * 2U));
 102              		.loc 1 200 17 view .LVU30
 103 003e 6FEA0208 		mvn	r8, r2
 104              	.L8:
 238:Drivers/STM32H7xx_HAL_Driver/Src/stm32h7xx_hal_gpio.c ****       temp &= ~(GPIO_MODER_MODE0 << (position * 2U));
 105              		.loc 1 238 7 is_stmt 1 view .LVU31
 238:Drivers/STM32H7xx_HAL_Driver/Src/stm32h7xx_hal_gpio.c ****       temp &= ~(GPIO_MODER_MODE0 << (position * 2U));
 106              		.loc 1 238 12 is_stmt 0 view .LVU32
 107 0042 0668     		ldr	r6, [r0]
 108              	.LVL4:
 239:Drivers/STM32H7xx_HAL_Driver/Src/stm32h7xx_hal_gpio.c ****       temp |= ((GPIO_Init->Mode & GPIO_MODE) << (position * 2U));
 109              		.loc 1 239 7 is_stmt 1 view .LVU33
 245:Drivers/STM32H7xx_HAL_Driver/Src/stm32h7xx_hal_gpio.c ****       {
 110              		.loc 1 245 10 is_stmt 0 view .LVU34
 111 0044 15F4403F 		tst	r5, #196608
 239:Drivers/STM32H7xx_HAL_Driver/Src/stm32h7xx_hal_gpio.c ****       temp |= ((GPIO_Init->Mode & GPIO_MODE) << (position * 2U));
 112              		.loc 1 239 12 view .LVU35
 113 0048 06EA0806 		and	r6, r6, r8
 114              	.LVL5:
 240:Drivers/STM32H7xx_HAL_Driver/Src/stm32h7xx_hal_gpio.c ****       GPIOx->MODER = temp;
 115              		.loc 1 240 7 is_stmt 1 view .LVU36
 240:Drivers/STM32H7xx_HAL_Driver/Src/stm32h7xx_hal_gpio.c ****       GPIOx->MODER = temp;
 116              		.loc 1 240 12 is_stmt 0 view .LVU37
 117 004c 42EA0602 		orr	r2, r2, r6
 118              	.LVL6:
 241:Drivers/STM32H7xx_HAL_Driver/Src/stm32h7xx_hal_gpio.c **** 
 119              		.loc 1 241 7 is_stmt 1 view .LVU38
 241:Drivers/STM32H7xx_HAL_Driver/Src/stm32h7xx_hal_gpio.c **** 
 120              		.loc 1 241 20 is_stmt 0 view .LVU39
 121 0050 0260     		str	r2, [r0]
 245:Drivers/STM32H7xx_HAL_Driver/Src/stm32h7xx_hal_gpio.c ****       {
 122              		.loc 1 245 7 is_stmt 1 view .LVU40
 245:Drivers/STM32H7xx_HAL_Driver/Src/stm32h7xx_hal_gpio.c ****       {
 123              		.loc 1 245 10 is_stmt 0 view .LVU41
 124 0052 7CD0     		beq	.L4
ARM GAS  C:\Users\Simon\AppData\Local\Temp\ccLenkVj.s 			page 8


 125              		.loc 1 248 9 is_stmt 1 view .LVU42
 126              	.LBB3:
 127              		.loc 1 248 9 view .LVU43
 128              		.loc 1 248 9 view .LVU44
 129 0054 D7F8F420 		ldr	r2, [r7, #244]
 130              	.LVL7:
 131              		.loc 1 248 9 is_stmt 0 view .LVU45
 132 0058 23F00308 		bic	r8, r3, #3
 133              	.LBE3:
 249:Drivers/STM32H7xx_HAL_Driver/Src/stm32h7xx_hal_gpio.c **** 
 250:Drivers/STM32H7xx_HAL_Driver/Src/stm32h7xx_hal_gpio.c ****         temp = SYSCFG->EXTICR[position >> 2U];
 251:Drivers/STM32H7xx_HAL_Driver/Src/stm32h7xx_hal_gpio.c ****         temp &= ~(0x0FUL << (4U * (position & 0x03U)));
 134              		.loc 1 251 45 view .LVU46
 135 005c 03F00309 		and	r9, r3, #3
 136              		.loc 1 251 26 view .LVU47
 137 0060 0F26     		movs	r6, #15
 138              	.LBB4:
 248:Drivers/STM32H7xx_HAL_Driver/Src/stm32h7xx_hal_gpio.c **** 
 139              		.loc 1 248 9 view .LVU48
 140 0062 42F00202 		orr	r2, r2, #2
 141 0066 08F1B048 		add	r8, r8, #1476395008
 142              	.LBE4:
 143              		.loc 1 251 33 view .LVU49
 144 006a 4FEA8909 		lsl	r9, r9, #2
 145              	.LBB5:
 248:Drivers/STM32H7xx_HAL_Driver/Src/stm32h7xx_hal_gpio.c **** 
 146              		.loc 1 248 9 view .LVU50
 147 006e C7F8F420 		str	r2, [r7, #244]
 148              	.LVL8:
 248:Drivers/STM32H7xx_HAL_Driver/Src/stm32h7xx_hal_gpio.c **** 
 149              		.loc 1 248 9 is_stmt 1 view .LVU51
 150 0072 08F58068 		add	r8, r8, #1024
 151 0076 D7F8F420 		ldr	r2, [r7, #244]
 152              	.LBE5:
 153              		.loc 1 251 26 is_stmt 0 view .LVU52
 154 007a 06FA09F6 		lsl	r6, r6, r9
 155              	.LBB6:
 248:Drivers/STM32H7xx_HAL_Driver/Src/stm32h7xx_hal_gpio.c **** 
 156              		.loc 1 248 9 view .LVU53
 157 007e 02F00202 		and	r2, r2, #2
 158 0082 0192     		str	r2, [sp, #4]
 248:Drivers/STM32H7xx_HAL_Driver/Src/stm32h7xx_hal_gpio.c **** 
 159              		.loc 1 248 9 is_stmt 1 view .LVU54
 160 0084 019A     		ldr	r2, [sp, #4]
 161              	.LBE6:
 248:Drivers/STM32H7xx_HAL_Driver/Src/stm32h7xx_hal_gpio.c **** 
 162              		.loc 1 248 9 view .LVU55
 250:Drivers/STM32H7xx_HAL_Driver/Src/stm32h7xx_hal_gpio.c ****         temp &= ~(0x0FUL << (4U * (position & 0x03U)));
 163              		.loc 1 250 9 view .LVU56
 250:Drivers/STM32H7xx_HAL_Driver/Src/stm32h7xx_hal_gpio.c ****         temp &= ~(0x0FUL << (4U * (position & 0x03U)));
 164              		.loc 1 250 14 is_stmt 0 view .LVU57
 165 0086 D8F80820 		ldr	r2, [r8, #8]
 166              	.LVL9:
 167              		.loc 1 251 9 is_stmt 1 view .LVU58
 168              		.loc 1 251 14 is_stmt 0 view .LVU59
 169 008a 22EA0602 		bic	r2, r2, r6
 170              	.LVL10:
ARM GAS  C:\Users\Simon\AppData\Local\Temp\ccLenkVj.s 			page 9


 252:Drivers/STM32H7xx_HAL_Driver/Src/stm32h7xx_hal_gpio.c ****         temp |= (GPIO_GET_INDEX(GPIOx) << (4U * (position & 0x03U)));
 171              		.loc 1 252 9 is_stmt 1 view .LVU60
 172              		.loc 1 252 18 is_stmt 0 view .LVU61
 173 008e 6C4E     		ldr	r6, .L47+4
 174 0090 B042     		cmp	r0, r6
 175 0092 28D0     		beq	.L10
 176              		.loc 1 252 18 discriminator 1 view .LVU62
 177 0094 06F58066 		add	r6, r6, #1024
 178 0098 B042     		cmp	r0, r6
 179 009a 00F0AC80 		beq	.L39
 180              		.loc 1 252 18 discriminator 3 view .LVU63
 181 009e 694E     		ldr	r6, .L47+8
 182 00a0 B042     		cmp	r0, r6
 183 00a2 00F0AD80 		beq	.L40
 184              		.loc 1 252 18 discriminator 5 view .LVU64
 185 00a6 684E     		ldr	r6, .L47+12
 186 00a8 B042     		cmp	r0, r6
 187 00aa 00F09F80 		beq	.L41
 188              		.loc 1 252 18 discriminator 7 view .LVU65
 189 00ae 674E     		ldr	r6, .L47+16
 190 00b0 B042     		cmp	r0, r6
 191 00b2 00F0AF80 		beq	.L42
 192              		.loc 1 252 18 discriminator 9 view .LVU66
 193 00b6 664E     		ldr	r6, .L47+20
 194 00b8 B042     		cmp	r0, r6
 195 00ba 00F0B080 		beq	.L43
 196              		.loc 1 252 18 discriminator 11 view .LVU67
 197 00be 654E     		ldr	r6, .L47+24
 198 00c0 B042     		cmp	r0, r6
 199 00c2 00F0A280 		beq	.L44
 200              		.loc 1 252 18 discriminator 13 view .LVU68
 201 00c6 644E     		ldr	r6, .L47+28
 202 00c8 B042     		cmp	r0, r6
 203 00ca 00F0AD80 		beq	.L45
 204              		.loc 1 252 18 discriminator 15 view .LVU69
 205 00ce 634E     		ldr	r6, .L47+32
 206 00d0 B042     		cmp	r0, r6
 207 00d2 00F0AE80 		beq	.L46
 208              		.loc 1 252 18 discriminator 17 view .LVU70
 209 00d6 624E     		ldr	r6, .L47+36
 210 00d8 B042     		cmp	r0, r6
 211              		.loc 1 252 40 discriminator 17 view .LVU71
 212 00da 0CBF     		ite	eq
 213 00dc 0926     		moveq	r6, #9
 214 00de 0A26     		movne	r6, #10
 215 00e0 06FA09F6 		lsl	r6, r6, r9
 216              		.loc 1 252 14 discriminator 17 view .LVU72
 217 00e4 3243     		orrs	r2, r2, r6
 218              	.LVL11:
 219              	.L10:
 253:Drivers/STM32H7xx_HAL_Driver/Src/stm32h7xx_hal_gpio.c ****         SYSCFG->EXTICR[position >> 2U] = temp;
 220              		.loc 1 253 9 is_stmt 1 discriminator 40 view .LVU73
 221              		.loc 1 253 40 is_stmt 0 discriminator 40 view .LVU74
 222 00e6 C8F80820 		str	r2, [r8, #8]
 254:Drivers/STM32H7xx_HAL_Driver/Src/stm32h7xx_hal_gpio.c **** 
 255:Drivers/STM32H7xx_HAL_Driver/Src/stm32h7xx_hal_gpio.c ****         /* Clear Rising Falling edge configuration */
 256:Drivers/STM32H7xx_HAL_Driver/Src/stm32h7xx_hal_gpio.c ****         temp = EXTI->RTSR1;
ARM GAS  C:\Users\Simon\AppData\Local\Temp\ccLenkVj.s 			page 10


 223              		.loc 1 256 9 is_stmt 1 discriminator 40 view .LVU75
 224              		.loc 1 256 14 is_stmt 0 discriminator 40 view .LVU76
 225 00ea 4FF0B042 		mov	r2, #1476395008
 257:Drivers/STM32H7xx_HAL_Driver/Src/stm32h7xx_hal_gpio.c ****         temp &= ~(iocurrent);
 258:Drivers/STM32H7xx_HAL_Driver/Src/stm32h7xx_hal_gpio.c ****         if ((GPIO_Init->Mode & TRIGGER_RISING) != 0x00U)
 226              		.loc 1 258 12 discriminator 40 view .LVU77
 227 00ee 15F4801F 		tst	r5, #1048576
 257:Drivers/STM32H7xx_HAL_Driver/Src/stm32h7xx_hal_gpio.c ****         temp &= ~(iocurrent);
 228              		.loc 1 257 17 discriminator 40 view .LVU78
 229 00f2 6FEA0E06 		mvn	r6, lr
 256:Drivers/STM32H7xx_HAL_Driver/Src/stm32h7xx_hal_gpio.c ****         temp &= ~(iocurrent);
 230              		.loc 1 256 14 discriminator 40 view .LVU79
 231 00f6 1268     		ldr	r2, [r2]
 232              	.LVL12:
 257:Drivers/STM32H7xx_HAL_Driver/Src/stm32h7xx_hal_gpio.c ****         temp &= ~(iocurrent);
 233              		.loc 1 257 9 is_stmt 1 discriminator 40 view .LVU80
 234              		.loc 1 258 9 discriminator 40 view .LVU81
 259:Drivers/STM32H7xx_HAL_Driver/Src/stm32h7xx_hal_gpio.c ****         {
 260:Drivers/STM32H7xx_HAL_Driver/Src/stm32h7xx_hal_gpio.c ****           temp |= iocurrent;
 261:Drivers/STM32H7xx_HAL_Driver/Src/stm32h7xx_hal_gpio.c ****         }
 262:Drivers/STM32H7xx_HAL_Driver/Src/stm32h7xx_hal_gpio.c ****         EXTI->RTSR1 = temp;
 235              		.loc 1 262 21 is_stmt 0 discriminator 40 view .LVU82
 236 00f8 4FF0B048 		mov	r8, #1476395008
 257:Drivers/STM32H7xx_HAL_Driver/Src/stm32h7xx_hal_gpio.c ****         if ((GPIO_Init->Mode & TRIGGER_RISING) != 0x00U)
 237              		.loc 1 257 14 discriminator 40 view .LVU83
 238 00fc 0CBF     		ite	eq
 239 00fe 3240     		andeq	r2, r2, r6
 240              	.LVL13:
 260:Drivers/STM32H7xx_HAL_Driver/Src/stm32h7xx_hal_gpio.c ****         }
 241              		.loc 1 260 11 is_stmt 1 discriminator 40 view .LVU84
 260:Drivers/STM32H7xx_HAL_Driver/Src/stm32h7xx_hal_gpio.c ****         }
 242              		.loc 1 260 16 is_stmt 0 discriminator 40 view .LVU85
 243 0100 4EEA0202 		orrne	r2, lr, r2
 244              	.LVL14:
 245              		.loc 1 262 9 is_stmt 1 discriminator 40 view .LVU86
 263:Drivers/STM32H7xx_HAL_Driver/Src/stm32h7xx_hal_gpio.c **** 
 264:Drivers/STM32H7xx_HAL_Driver/Src/stm32h7xx_hal_gpio.c ****         temp = EXTI->FTSR1;
 265:Drivers/STM32H7xx_HAL_Driver/Src/stm32h7xx_hal_gpio.c ****         temp &= ~(iocurrent);
 266:Drivers/STM32H7xx_HAL_Driver/Src/stm32h7xx_hal_gpio.c ****         if ((GPIO_Init->Mode & TRIGGER_FALLING) != 0x00U)
 246              		.loc 1 266 12 is_stmt 0 discriminator 40 view .LVU87
 247 0104 15F4001F 		tst	r5, #2097152
 262:Drivers/STM32H7xx_HAL_Driver/Src/stm32h7xx_hal_gpio.c **** 
 248              		.loc 1 262 21 discriminator 40 view .LVU88
 249 0108 C8F80020 		str	r2, [r8]
 264:Drivers/STM32H7xx_HAL_Driver/Src/stm32h7xx_hal_gpio.c ****         temp &= ~(iocurrent);
 250              		.loc 1 264 9 is_stmt 1 discriminator 40 view .LVU89
 264:Drivers/STM32H7xx_HAL_Driver/Src/stm32h7xx_hal_gpio.c ****         temp &= ~(iocurrent);
 251              		.loc 1 264 14 is_stmt 0 discriminator 40 view .LVU90
 252 010c D8F80420 		ldr	r2, [r8, #4]
 253              	.LVL15:
 265:Drivers/STM32H7xx_HAL_Driver/Src/stm32h7xx_hal_gpio.c ****         if ((GPIO_Init->Mode & TRIGGER_FALLING) != 0x00U)
 254              		.loc 1 265 9 is_stmt 1 discriminator 40 view .LVU91
 255              		.loc 1 266 9 discriminator 40 view .LVU92
 267:Drivers/STM32H7xx_HAL_Driver/Src/stm32h7xx_hal_gpio.c ****         {
 268:Drivers/STM32H7xx_HAL_Driver/Src/stm32h7xx_hal_gpio.c ****           temp |= iocurrent;
 269:Drivers/STM32H7xx_HAL_Driver/Src/stm32h7xx_hal_gpio.c ****         }
 270:Drivers/STM32H7xx_HAL_Driver/Src/stm32h7xx_hal_gpio.c ****         EXTI->FTSR1 = temp;
ARM GAS  C:\Users\Simon\AppData\Local\Temp\ccLenkVj.s 			page 11


 256              		.loc 1 270 21 is_stmt 0 discriminator 40 view .LVU93
 257 0110 4FF0B048 		mov	r8, #1476395008
 265:Drivers/STM32H7xx_HAL_Driver/Src/stm32h7xx_hal_gpio.c ****         if ((GPIO_Init->Mode & TRIGGER_FALLING) != 0x00U)
 258              		.loc 1 265 14 discriminator 40 view .LVU94
 259 0114 0CBF     		ite	eq
 260 0116 3240     		andeq	r2, r2, r6
 261              	.LVL16:
 268:Drivers/STM32H7xx_HAL_Driver/Src/stm32h7xx_hal_gpio.c ****         }
 262              		.loc 1 268 11 is_stmt 1 discriminator 40 view .LVU95
 268:Drivers/STM32H7xx_HAL_Driver/Src/stm32h7xx_hal_gpio.c ****         }
 263              		.loc 1 268 16 is_stmt 0 discriminator 40 view .LVU96
 264 0118 4EEA0202 		orrne	r2, lr, r2
 265              	.LVL17:
 266              		.loc 1 270 9 is_stmt 1 discriminator 40 view .LVU97
 271:Drivers/STM32H7xx_HAL_Driver/Src/stm32h7xx_hal_gpio.c **** 
 272:Drivers/STM32H7xx_HAL_Driver/Src/stm32h7xx_hal_gpio.c ****         temp = EXTI_CurrentCPU->EMR1;
 273:Drivers/STM32H7xx_HAL_Driver/Src/stm32h7xx_hal_gpio.c ****         temp &= ~(iocurrent);
 274:Drivers/STM32H7xx_HAL_Driver/Src/stm32h7xx_hal_gpio.c ****         if ((GPIO_Init->Mode & EXTI_EVT) != 0x00U)
 267              		.loc 1 274 12 is_stmt 0 discriminator 40 view .LVU98
 268 011c 15F4003F 		tst	r5, #131072
 270:Drivers/STM32H7xx_HAL_Driver/Src/stm32h7xx_hal_gpio.c **** 
 269              		.loc 1 270 21 discriminator 40 view .LVU99
 270 0120 C8F80420 		str	r2, [r8, #4]
 272:Drivers/STM32H7xx_HAL_Driver/Src/stm32h7xx_hal_gpio.c ****         temp &= ~(iocurrent);
 271              		.loc 1 272 9 is_stmt 1 discriminator 40 view .LVU100
 272:Drivers/STM32H7xx_HAL_Driver/Src/stm32h7xx_hal_gpio.c ****         temp &= ~(iocurrent);
 272              		.loc 1 272 14 is_stmt 0 discriminator 40 view .LVU101
 273 0124 D8F88420 		ldr	r2, [r8, #132]
 274              	.LVL18:
 273:Drivers/STM32H7xx_HAL_Driver/Src/stm32h7xx_hal_gpio.c ****         if ((GPIO_Init->Mode & EXTI_EVT) != 0x00U)
 275              		.loc 1 273 9 is_stmt 1 discriminator 40 view .LVU102
 276              		.loc 1 274 9 discriminator 40 view .LVU103
 275:Drivers/STM32H7xx_HAL_Driver/Src/stm32h7xx_hal_gpio.c ****         {
 276:Drivers/STM32H7xx_HAL_Driver/Src/stm32h7xx_hal_gpio.c ****           temp |= iocurrent;
 277:Drivers/STM32H7xx_HAL_Driver/Src/stm32h7xx_hal_gpio.c ****         }
 278:Drivers/STM32H7xx_HAL_Driver/Src/stm32h7xx_hal_gpio.c ****         EXTI_CurrentCPU->EMR1 = temp;
 277              		.loc 1 278 31 is_stmt 0 discriminator 40 view .LVU104
 278 0128 4FF0B048 		mov	r8, #1476395008
 273:Drivers/STM32H7xx_HAL_Driver/Src/stm32h7xx_hal_gpio.c ****         if ((GPIO_Init->Mode & EXTI_EVT) != 0x00U)
 279              		.loc 1 273 14 discriminator 40 view .LVU105
 280 012c 0CBF     		ite	eq
 281 012e 3240     		andeq	r2, r2, r6
 282              	.LVL19:
 276:Drivers/STM32H7xx_HAL_Driver/Src/stm32h7xx_hal_gpio.c ****         }
 283              		.loc 1 276 11 is_stmt 1 discriminator 40 view .LVU106
 276:Drivers/STM32H7xx_HAL_Driver/Src/stm32h7xx_hal_gpio.c ****         }
 284              		.loc 1 276 16 is_stmt 0 discriminator 40 view .LVU107
 285 0130 4EEA0202 		orrne	r2, lr, r2
 286              	.LVL20:
 287              		.loc 1 278 9 is_stmt 1 discriminator 40 view .LVU108
 279:Drivers/STM32H7xx_HAL_Driver/Src/stm32h7xx_hal_gpio.c **** 
 280:Drivers/STM32H7xx_HAL_Driver/Src/stm32h7xx_hal_gpio.c ****         /* Clear EXTI line configuration */
 281:Drivers/STM32H7xx_HAL_Driver/Src/stm32h7xx_hal_gpio.c ****         temp = EXTI_CurrentCPU->IMR1;
 282:Drivers/STM32H7xx_HAL_Driver/Src/stm32h7xx_hal_gpio.c ****         temp &= ~(iocurrent);
 283:Drivers/STM32H7xx_HAL_Driver/Src/stm32h7xx_hal_gpio.c ****         if ((GPIO_Init->Mode & EXTI_IT) != 0x00U)
 288              		.loc 1 283 12 is_stmt 0 discriminator 40 view .LVU109
 289 0134 ED03     		lsls	r5, r5, #15
ARM GAS  C:\Users\Simon\AppData\Local\Temp\ccLenkVj.s 			page 12


 284:Drivers/STM32H7xx_HAL_Driver/Src/stm32h7xx_hal_gpio.c ****         {
 285:Drivers/STM32H7xx_HAL_Driver/Src/stm32h7xx_hal_gpio.c ****           temp |= iocurrent;
 286:Drivers/STM32H7xx_HAL_Driver/Src/stm32h7xx_hal_gpio.c ****         }
 287:Drivers/STM32H7xx_HAL_Driver/Src/stm32h7xx_hal_gpio.c ****         EXTI_CurrentCPU->IMR1 = temp;
 290              		.loc 1 287 31 discriminator 40 view .LVU110
 291 0136 4FF0B045 		mov	r5, #1476395008
 278:Drivers/STM32H7xx_HAL_Driver/Src/stm32h7xx_hal_gpio.c **** 
 292              		.loc 1 278 31 discriminator 40 view .LVU111
 293 013a C8F88420 		str	r2, [r8, #132]
 281:Drivers/STM32H7xx_HAL_Driver/Src/stm32h7xx_hal_gpio.c ****         temp &= ~(iocurrent);
 294              		.loc 1 281 9 is_stmt 1 discriminator 40 view .LVU112
 281:Drivers/STM32H7xx_HAL_Driver/Src/stm32h7xx_hal_gpio.c ****         temp &= ~(iocurrent);
 295              		.loc 1 281 14 is_stmt 0 discriminator 40 view .LVU113
 296 013e D8F88020 		ldr	r2, [r8, #128]
 297              	.LVL21:
 282:Drivers/STM32H7xx_HAL_Driver/Src/stm32h7xx_hal_gpio.c ****         if ((GPIO_Init->Mode & EXTI_IT) != 0x00U)
 298              		.loc 1 282 9 is_stmt 1 discriminator 40 view .LVU114
 283:Drivers/STM32H7xx_HAL_Driver/Src/stm32h7xx_hal_gpio.c ****         {
 299              		.loc 1 283 9 discriminator 40 view .LVU115
 282:Drivers/STM32H7xx_HAL_Driver/Src/stm32h7xx_hal_gpio.c ****         if ((GPIO_Init->Mode & EXTI_IT) != 0x00U)
 300              		.loc 1 282 14 is_stmt 0 discriminator 40 view .LVU116
 301 0142 54BF     		ite	pl
 302 0144 3240     		andpl	r2, r2, r6
 303              	.LVL22:
 285:Drivers/STM32H7xx_HAL_Driver/Src/stm32h7xx_hal_gpio.c ****         }
 304              		.loc 1 285 11 is_stmt 1 discriminator 40 view .LVU117
 285:Drivers/STM32H7xx_HAL_Driver/Src/stm32h7xx_hal_gpio.c ****         }
 305              		.loc 1 285 16 is_stmt 0 discriminator 40 view .LVU118
 306 0146 4EEA0202 		orrmi	r2, lr, r2
 307              	.LVL23:
 308              		.loc 1 287 9 is_stmt 1 discriminator 40 view .LVU119
 309              		.loc 1 287 31 is_stmt 0 discriminator 40 view .LVU120
 310 014a C5F88020 		str	r2, [r5, #128]
 311              	.LVL24:
 312              	.L4:
 288:Drivers/STM32H7xx_HAL_Driver/Src/stm32h7xx_hal_gpio.c ****       }
 289:Drivers/STM32H7xx_HAL_Driver/Src/stm32h7xx_hal_gpio.c ****     }
 290:Drivers/STM32H7xx_HAL_Driver/Src/stm32h7xx_hal_gpio.c **** 
 291:Drivers/STM32H7xx_HAL_Driver/Src/stm32h7xx_hal_gpio.c ****     position++;
 313              		.loc 1 291 5 is_stmt 1 view .LVU121
 314              		.loc 1 291 13 is_stmt 0 view .LVU122
 315 014e 0133     		adds	r3, r3, #1
 316              	.LVL25:
 184:Drivers/STM32H7xx_HAL_Driver/Src/stm32h7xx_hal_gpio.c ****   {
 317              		.loc 1 184 41 is_stmt 1 view .LVU123
 318 0150 0CF1020C 		add	ip, ip, #2
 319 0154 34FA03F2 		lsrs	r2, r4, r3
 320 0158 7FF45DAF 		bne	.L2
 321              	.LVL26:
 322              	.L1:
 292:Drivers/STM32H7xx_HAL_Driver/Src/stm32h7xx_hal_gpio.c ****   }
 293:Drivers/STM32H7xx_HAL_Driver/Src/stm32h7xx_hal_gpio.c **** }
 323              		.loc 1 293 1 is_stmt 0 view .LVU124
 324 015c 03B0     		add	sp, sp, #12
 325              	.LCFI2:
 326              		.cfi_remember_state
 327              		.cfi_def_cfa_offset 36
ARM GAS  C:\Users\Simon\AppData\Local\Temp\ccLenkVj.s 			page 13


 328              		@ sp needed
 329 015e BDE8F08F 		pop	{r4, r5, r6, r7, r8, r9, r10, fp, pc}
 330              	.LVL27:
 331              	.L38:
 332              	.LCFI3:
 333              		.cfi_restore_state
 196:Drivers/STM32H7xx_HAL_Driver/Src/stm32h7xx_hal_gpio.c **** 
 334              		.loc 1 196 9 is_stmt 1 view .LVU125
 199:Drivers/STM32H7xx_HAL_Driver/Src/stm32h7xx_hal_gpio.c ****         temp &= ~(GPIO_OSPEEDR_OSPEED0 << (position * 2U));
 335              		.loc 1 199 9 view .LVU126
 200:Drivers/STM32H7xx_HAL_Driver/Src/stm32h7xx_hal_gpio.c ****         temp |= (GPIO_Init->Speed << (position * 2U));
 336              		.loc 1 200 40 is_stmt 0 view .LVU127
 337 0162 4FF00308 		mov	r8, #3
 199:Drivers/STM32H7xx_HAL_Driver/Src/stm32h7xx_hal_gpio.c ****         temp &= ~(GPIO_OSPEEDR_OSPEED0 << (position * 2U));
 338              		.loc 1 199 14 view .LVU128
 339 0166 8668     		ldr	r6, [r0, #8]
 340              	.LVL28:
 200:Drivers/STM32H7xx_HAL_Driver/Src/stm32h7xx_hal_gpio.c ****         temp |= (GPIO_Init->Speed << (position * 2U));
 341              		.loc 1 200 9 is_stmt 1 view .LVU129
 200:Drivers/STM32H7xx_HAL_Driver/Src/stm32h7xx_hal_gpio.c ****         temp |= (GPIO_Init->Speed << (position * 2U));
 342              		.loc 1 200 40 is_stmt 0 view .LVU130
 343 0168 08FA0CF8 		lsl	r8, r8, ip
 200:Drivers/STM32H7xx_HAL_Driver/Src/stm32h7xx_hal_gpio.c ****         temp |= (GPIO_Init->Speed << (position * 2U));
 344              		.loc 1 200 14 view .LVU131
 345 016c 26EA080A 		bic	r10, r6, r8
 346              	.LVL29:
 201:Drivers/STM32H7xx_HAL_Driver/Src/stm32h7xx_hal_gpio.c ****         GPIOx->OSPEEDR = temp;
 347              		.loc 1 201 9 is_stmt 1 view .LVU132
 201:Drivers/STM32H7xx_HAL_Driver/Src/stm32h7xx_hal_gpio.c ****         GPIOx->OSPEEDR = temp;
 348              		.loc 1 201 35 is_stmt 0 view .LVU133
 349 0170 CE68     		ldr	r6, [r1, #12]
 200:Drivers/STM32H7xx_HAL_Driver/Src/stm32h7xx_hal_gpio.c ****         temp |= (GPIO_Init->Speed << (position * 2U));
 350              		.loc 1 200 17 view .LVU134
 351 0172 6FEA0808 		mvn	r8, r8
 201:Drivers/STM32H7xx_HAL_Driver/Src/stm32h7xx_hal_gpio.c ****         GPIOx->OSPEEDR = temp;
 352              		.loc 1 201 35 view .LVU135
 353 0176 06FA0CF6 		lsl	r6, r6, ip
 201:Drivers/STM32H7xx_HAL_Driver/Src/stm32h7xx_hal_gpio.c ****         GPIOx->OSPEEDR = temp;
 354              		.loc 1 201 14 view .LVU136
 355 017a 46EA0A06 		orr	r6, r6, r10
 356              	.LVL30:
 202:Drivers/STM32H7xx_HAL_Driver/Src/stm32h7xx_hal_gpio.c **** 
 357              		.loc 1 202 9 is_stmt 1 view .LVU137
 202:Drivers/STM32H7xx_HAL_Driver/Src/stm32h7xx_hal_gpio.c **** 
 358              		.loc 1 202 24 is_stmt 0 view .LVU138
 359 017e 8660     		str	r6, [r0, #8]
 205:Drivers/STM32H7xx_HAL_Driver/Src/stm32h7xx_hal_gpio.c ****         temp &= ~(GPIO_OTYPER_OT0 << position) ;
 360              		.loc 1 205 9 is_stmt 1 view .LVU139
 207:Drivers/STM32H7xx_HAL_Driver/Src/stm32h7xx_hal_gpio.c ****         GPIOx->OTYPER = temp;
 361              		.loc 1 207 51 is_stmt 0 view .LVU140
 362 0180 C5F30016 		ubfx	r6, r5, #4, #1
 363              	.LVL31:
 205:Drivers/STM32H7xx_HAL_Driver/Src/stm32h7xx_hal_gpio.c ****         temp &= ~(GPIO_OTYPER_OT0 << position) ;
 364              		.loc 1 205 14 view .LVU141
 365 0184 D0F804A0 		ldr	r10, [r0, #4]
 366              	.LVL32:
 206:Drivers/STM32H7xx_HAL_Driver/Src/stm32h7xx_hal_gpio.c ****         temp |= (((GPIO_Init->Mode & OUTPUT_TYPE) >> OUTPUT_TYPE_Pos) << position);
ARM GAS  C:\Users\Simon\AppData\Local\Temp\ccLenkVj.s 			page 14


 367              		.loc 1 206 9 is_stmt 1 view .LVU142
 207:Drivers/STM32H7xx_HAL_Driver/Src/stm32h7xx_hal_gpio.c ****         GPIOx->OTYPER = temp;
 368              		.loc 1 207 71 is_stmt 0 view .LVU143
 369 0188 9E40     		lsls	r6, r6, r3
 206:Drivers/STM32H7xx_HAL_Driver/Src/stm32h7xx_hal_gpio.c ****         temp |= (((GPIO_Init->Mode & OUTPUT_TYPE) >> OUTPUT_TYPE_Pos) << position);
 370              		.loc 1 206 14 view .LVU144
 371 018a 2AEA0202 		bic	r2, r10, r2
 372              	.LVL33:
 207:Drivers/STM32H7xx_HAL_Driver/Src/stm32h7xx_hal_gpio.c ****         GPIOx->OTYPER = temp;
 373              		.loc 1 207 9 is_stmt 1 view .LVU145
 207:Drivers/STM32H7xx_HAL_Driver/Src/stm32h7xx_hal_gpio.c ****         GPIOx->OTYPER = temp;
 374              		.loc 1 207 14 is_stmt 0 view .LVU146
 375 018e 3243     		orrs	r2, r2, r6
 376              	.LVL34:
 208:Drivers/STM32H7xx_HAL_Driver/Src/stm32h7xx_hal_gpio.c ****       }
 377              		.loc 1 208 9 is_stmt 1 view .LVU147
 208:Drivers/STM32H7xx_HAL_Driver/Src/stm32h7xx_hal_gpio.c ****       }
 378              		.loc 1 208 23 is_stmt 0 view .LVU148
 379 0190 4260     		str	r2, [r0, #4]
 211:Drivers/STM32H7xx_HAL_Driver/Src/stm32h7xx_hal_gpio.c ****       {
 380              		.loc 1 211 7 is_stmt 1 view .LVU149
 381              	.LVL35:
 382              	.L6:
 214:Drivers/STM32H7xx_HAL_Driver/Src/stm32h7xx_hal_gpio.c **** 
 383              		.loc 1 214 8 view .LVU150
 217:Drivers/STM32H7xx_HAL_Driver/Src/stm32h7xx_hal_gpio.c ****       temp &= ~(GPIO_PUPDR_PUPD0 << (position * 2U));
 384              		.loc 1 217 7 view .LVU151
 217:Drivers/STM32H7xx_HAL_Driver/Src/stm32h7xx_hal_gpio.c ****       temp &= ~(GPIO_PUPDR_PUPD0 << (position * 2U));
 385              		.loc 1 217 12 is_stmt 0 view .LVU152
 386 0192 C268     		ldr	r2, [r0, #12]
 387              	.LVL36:
 218:Drivers/STM32H7xx_HAL_Driver/Src/stm32h7xx_hal_gpio.c ****       temp |= ((GPIO_Init->Pull) << (position * 2U));
 388              		.loc 1 218 7 is_stmt 1 view .LVU153
 224:Drivers/STM32H7xx_HAL_Driver/Src/stm32h7xx_hal_gpio.c ****       {
 389              		.loc 1 224 10 is_stmt 0 view .LVU154
 390 0194 B9F1020F 		cmp	r9, #2
 219:Drivers/STM32H7xx_HAL_Driver/Src/stm32h7xx_hal_gpio.c ****       GPIOx->PUPDR = temp;
 391              		.loc 1 219 34 view .LVU155
 392 0198 8E68     		ldr	r6, [r1, #8]
 218:Drivers/STM32H7xx_HAL_Driver/Src/stm32h7xx_hal_gpio.c ****       temp |= ((GPIO_Init->Pull) << (position * 2U));
 393              		.loc 1 218 12 view .LVU156
 394 019a 02EA0802 		and	r2, r2, r8
 395              	.LVL37:
 219:Drivers/STM32H7xx_HAL_Driver/Src/stm32h7xx_hal_gpio.c ****       GPIOx->PUPDR = temp;
 396              		.loc 1 219 7 is_stmt 1 view .LVU157
 219:Drivers/STM32H7xx_HAL_Driver/Src/stm32h7xx_hal_gpio.c ****       GPIOx->PUPDR = temp;
 397              		.loc 1 219 34 is_stmt 0 view .LVU158
 398 019e 06FA0CF6 		lsl	r6, r6, ip
 219:Drivers/STM32H7xx_HAL_Driver/Src/stm32h7xx_hal_gpio.c ****       GPIOx->PUPDR = temp;
 399              		.loc 1 219 12 view .LVU159
 400 01a2 46EA0206 		orr	r6, r6, r2
 401              	.LVL38:
 220:Drivers/STM32H7xx_HAL_Driver/Src/stm32h7xx_hal_gpio.c ****       }
 402              		.loc 1 220 7 is_stmt 1 view .LVU160
 403 01a6 09FA0CF2 		lsl	r2, r9, ip
 220:Drivers/STM32H7xx_HAL_Driver/Src/stm32h7xx_hal_gpio.c ****       }
 404              		.loc 1 220 20 is_stmt 0 view .LVU161
ARM GAS  C:\Users\Simon\AppData\Local\Temp\ccLenkVj.s 			page 15


 405 01aa C660     		str	r6, [r0, #12]
 224:Drivers/STM32H7xx_HAL_Driver/Src/stm32h7xx_hal_gpio.c ****       {
 406              		.loc 1 224 7 is_stmt 1 view .LVU162
 224:Drivers/STM32H7xx_HAL_Driver/Src/stm32h7xx_hal_gpio.c ****       {
 407              		.loc 1 224 10 is_stmt 0 view .LVU163
 408 01ac 7FF449AF 		bne	.L8
 227:Drivers/STM32H7xx_HAL_Driver/Src/stm32h7xx_hal_gpio.c ****         assert_param(IS_GPIO_AF(GPIO_Init->Alternate));
 409              		.loc 1 227 9 is_stmt 1 view .LVU164
 228:Drivers/STM32H7xx_HAL_Driver/Src/stm32h7xx_hal_gpio.c **** 
 410              		.loc 1 228 9 view .LVU165
 231:Drivers/STM32H7xx_HAL_Driver/Src/stm32h7xx_hal_gpio.c ****         temp &= ~(0xFU << ((position & 0x07U) * 4U));
 411              		.loc 1 231 9 view .LVU166
 231:Drivers/STM32H7xx_HAL_Driver/Src/stm32h7xx_hal_gpio.c ****         temp &= ~(0xFU << ((position & 0x07U) * 4U));
 412              		.loc 1 231 36 is_stmt 0 view .LVU167
 413 01b0 4FEAD309 		lsr	r9, r3, #3
 232:Drivers/STM32H7xx_HAL_Driver/Src/stm32h7xx_hal_gpio.c ****         temp |= ((GPIO_Init->Alternate) << ((position & 0x07U) * 4U));
 414              		.loc 1 232 38 view .LVU168
 415 01b4 03F0070B 		and	fp, r3, #7
 232:Drivers/STM32H7xx_HAL_Driver/Src/stm32h7xx_hal_gpio.c ****         temp |= ((GPIO_Init->Alternate) << ((position & 0x07U) * 4U));
 416              		.loc 1 232 24 view .LVU169
 417 01b8 0F26     		movs	r6, #15
 418              	.LVL39:
 232:Drivers/STM32H7xx_HAL_Driver/Src/stm32h7xx_hal_gpio.c ****         temp |= ((GPIO_Init->Alternate) << ((position & 0x07U) * 4U));
 419              		.loc 1 232 24 view .LVU170
 420 01ba 00EB8909 		add	r9, r0, r9, lsl #2
 232:Drivers/STM32H7xx_HAL_Driver/Src/stm32h7xx_hal_gpio.c ****         temp |= ((GPIO_Init->Alternate) << ((position & 0x07U) * 4U));
 421              		.loc 1 232 47 view .LVU171
 422 01be 4FEA8B0B 		lsl	fp, fp, #2
 231:Drivers/STM32H7xx_HAL_Driver/Src/stm32h7xx_hal_gpio.c ****         temp &= ~(0xFU << ((position & 0x07U) * 4U));
 423              		.loc 1 231 14 view .LVU172
 424 01c2 D9F820A0 		ldr	r10, [r9, #32]
 425              	.LVL40:
 232:Drivers/STM32H7xx_HAL_Driver/Src/stm32h7xx_hal_gpio.c ****         temp |= ((GPIO_Init->Alternate) << ((position & 0x07U) * 4U));
 426              		.loc 1 232 9 is_stmt 1 view .LVU173
 232:Drivers/STM32H7xx_HAL_Driver/Src/stm32h7xx_hal_gpio.c ****         temp |= ((GPIO_Init->Alternate) << ((position & 0x07U) * 4U));
 427              		.loc 1 232 24 is_stmt 0 view .LVU174
 428 01c6 06FA0BF6 		lsl	r6, r6, fp
 232:Drivers/STM32H7xx_HAL_Driver/Src/stm32h7xx_hal_gpio.c ****         temp |= ((GPIO_Init->Alternate) << ((position & 0x07U) * 4U));
 429              		.loc 1 232 14 view .LVU175
 430 01ca 2AEA060A 		bic	r10, r10, r6
 431              	.LVL41:
 233:Drivers/STM32H7xx_HAL_Driver/Src/stm32h7xx_hal_gpio.c ****         GPIOx->AFR[position >> 3U] = temp;
 432              		.loc 1 233 9 is_stmt 1 view .LVU176
 233:Drivers/STM32H7xx_HAL_Driver/Src/stm32h7xx_hal_gpio.c ****         GPIOx->AFR[position >> 3U] = temp;
 433              		.loc 1 233 41 is_stmt 0 view .LVU177
 434 01ce 0E69     		ldr	r6, [r1, #16]
 435 01d0 06FA0BF6 		lsl	r6, r6, fp
 233:Drivers/STM32H7xx_HAL_Driver/Src/stm32h7xx_hal_gpio.c ****         GPIOx->AFR[position >> 3U] = temp;
 436              		.loc 1 233 14 view .LVU178
 437 01d4 46EA0A06 		orr	r6, r6, r10
 438              	.LVL42:
 234:Drivers/STM32H7xx_HAL_Driver/Src/stm32h7xx_hal_gpio.c ****       }
 439              		.loc 1 234 9 is_stmt 1 view .LVU179
 234:Drivers/STM32H7xx_HAL_Driver/Src/stm32h7xx_hal_gpio.c ****       }
 440              		.loc 1 234 36 is_stmt 0 view .LVU180
 441 01d8 C9F82060 		str	r6, [r9, #32]
 442 01dc 31E7     		b	.L8
ARM GAS  C:\Users\Simon\AppData\Local\Temp\ccLenkVj.s 			page 16


 443              	.LVL43:
 444              	.L7:
 200:Drivers/STM32H7xx_HAL_Driver/Src/stm32h7xx_hal_gpio.c ****         temp |= (GPIO_Init->Speed << (position * 2U));
 445              		.loc 1 200 40 view .LVU181
 446 01de 4FF00308 		mov	r8, #3
 447 01e2 08FA0CF8 		lsl	r8, r8, ip
 200:Drivers/STM32H7xx_HAL_Driver/Src/stm32h7xx_hal_gpio.c ****         temp |= (GPIO_Init->Speed << (position * 2U));
 448              		.loc 1 200 17 view .LVU182
 449 01e6 6FEA0808 		mvn	r8, r8
 450 01ea D2E7     		b	.L6
 451              	.LVL44:
 452              	.L41:
 252:Drivers/STM32H7xx_HAL_Driver/Src/stm32h7xx_hal_gpio.c ****         SYSCFG->EXTICR[position >> 2U] = temp;
 453              		.loc 1 252 40 view .LVU183
 454 01ec 0326     		movs	r6, #3
 455 01ee 06FA09F6 		lsl	r6, r6, r9
 252:Drivers/STM32H7xx_HAL_Driver/Src/stm32h7xx_hal_gpio.c ****         SYSCFG->EXTICR[position >> 2U] = temp;
 456              		.loc 1 252 14 view .LVU184
 457 01f2 3243     		orrs	r2, r2, r6
 458              	.LVL45:
 252:Drivers/STM32H7xx_HAL_Driver/Src/stm32h7xx_hal_gpio.c ****         SYSCFG->EXTICR[position >> 2U] = temp;
 459              		.loc 1 252 14 view .LVU185
 460 01f4 77E7     		b	.L10
 461              	.LVL46:
 462              	.L39:
 252:Drivers/STM32H7xx_HAL_Driver/Src/stm32h7xx_hal_gpio.c ****         SYSCFG->EXTICR[position >> 2U] = temp;
 463              		.loc 1 252 40 view .LVU186
 464 01f6 0126     		movs	r6, #1
 465 01f8 06FA09F6 		lsl	r6, r6, r9
 252:Drivers/STM32H7xx_HAL_Driver/Src/stm32h7xx_hal_gpio.c ****         SYSCFG->EXTICR[position >> 2U] = temp;
 466              		.loc 1 252 14 view .LVU187
 467 01fc 3243     		orrs	r2, r2, r6
 468              	.LVL47:
 252:Drivers/STM32H7xx_HAL_Driver/Src/stm32h7xx_hal_gpio.c ****         SYSCFG->EXTICR[position >> 2U] = temp;
 469              		.loc 1 252 14 view .LVU188
 470 01fe 72E7     		b	.L10
 471              	.LVL48:
 472              	.L40:
 252:Drivers/STM32H7xx_HAL_Driver/Src/stm32h7xx_hal_gpio.c ****         SYSCFG->EXTICR[position >> 2U] = temp;
 473              		.loc 1 252 40 view .LVU189
 474 0200 0226     		movs	r6, #2
 475 0202 06FA09F6 		lsl	r6, r6, r9
 252:Drivers/STM32H7xx_HAL_Driver/Src/stm32h7xx_hal_gpio.c ****         SYSCFG->EXTICR[position >> 2U] = temp;
 476              		.loc 1 252 14 view .LVU190
 477 0206 3243     		orrs	r2, r2, r6
 478              	.LVL49:
 252:Drivers/STM32H7xx_HAL_Driver/Src/stm32h7xx_hal_gpio.c ****         SYSCFG->EXTICR[position >> 2U] = temp;
 479              		.loc 1 252 14 view .LVU191
 480 0208 6DE7     		b	.L10
 481              	.LVL50:
 482              	.L44:
 252:Drivers/STM32H7xx_HAL_Driver/Src/stm32h7xx_hal_gpio.c ****         SYSCFG->EXTICR[position >> 2U] = temp;
 483              		.loc 1 252 40 view .LVU192
 484 020a 0626     		movs	r6, #6
 485 020c 06FA09F6 		lsl	r6, r6, r9
 252:Drivers/STM32H7xx_HAL_Driver/Src/stm32h7xx_hal_gpio.c ****         SYSCFG->EXTICR[position >> 2U] = temp;
 486              		.loc 1 252 14 view .LVU193
ARM GAS  C:\Users\Simon\AppData\Local\Temp\ccLenkVj.s 			page 17


 487 0210 3243     		orrs	r2, r2, r6
 488              	.LVL51:
 252:Drivers/STM32H7xx_HAL_Driver/Src/stm32h7xx_hal_gpio.c ****         SYSCFG->EXTICR[position >> 2U] = temp;
 489              		.loc 1 252 14 view .LVU194
 490 0212 68E7     		b	.L10
 491              	.LVL52:
 492              	.L42:
 252:Drivers/STM32H7xx_HAL_Driver/Src/stm32h7xx_hal_gpio.c ****         SYSCFG->EXTICR[position >> 2U] = temp;
 493              		.loc 1 252 40 view .LVU195
 494 0214 0426     		movs	r6, #4
 495 0216 06FA09F6 		lsl	r6, r6, r9
 252:Drivers/STM32H7xx_HAL_Driver/Src/stm32h7xx_hal_gpio.c ****         SYSCFG->EXTICR[position >> 2U] = temp;
 496              		.loc 1 252 14 view .LVU196
 497 021a 3243     		orrs	r2, r2, r6
 498              	.LVL53:
 252:Drivers/STM32H7xx_HAL_Driver/Src/stm32h7xx_hal_gpio.c ****         SYSCFG->EXTICR[position >> 2U] = temp;
 499              		.loc 1 252 14 view .LVU197
 500 021c 63E7     		b	.L10
 501              	.LVL54:
 502              	.L43:
 252:Drivers/STM32H7xx_HAL_Driver/Src/stm32h7xx_hal_gpio.c ****         SYSCFG->EXTICR[position >> 2U] = temp;
 503              		.loc 1 252 40 view .LVU198
 504 021e 0526     		movs	r6, #5
 505 0220 06FA09F6 		lsl	r6, r6, r9
 252:Drivers/STM32H7xx_HAL_Driver/Src/stm32h7xx_hal_gpio.c ****         SYSCFG->EXTICR[position >> 2U] = temp;
 506              		.loc 1 252 14 view .LVU199
 507 0224 3243     		orrs	r2, r2, r6
 508              	.LVL55:
 252:Drivers/STM32H7xx_HAL_Driver/Src/stm32h7xx_hal_gpio.c ****         SYSCFG->EXTICR[position >> 2U] = temp;
 509              		.loc 1 252 14 view .LVU200
 510 0226 5EE7     		b	.L10
 511              	.LVL56:
 512              	.L45:
 252:Drivers/STM32H7xx_HAL_Driver/Src/stm32h7xx_hal_gpio.c ****         SYSCFG->EXTICR[position >> 2U] = temp;
 513              		.loc 1 252 40 view .LVU201
 514 0228 0726     		movs	r6, #7
 515 022a 06FA09F6 		lsl	r6, r6, r9
 252:Drivers/STM32H7xx_HAL_Driver/Src/stm32h7xx_hal_gpio.c ****         SYSCFG->EXTICR[position >> 2U] = temp;
 516              		.loc 1 252 14 view .LVU202
 517 022e 3243     		orrs	r2, r2, r6
 518              	.LVL57:
 252:Drivers/STM32H7xx_HAL_Driver/Src/stm32h7xx_hal_gpio.c ****         SYSCFG->EXTICR[position >> 2U] = temp;
 519              		.loc 1 252 14 view .LVU203
 520 0230 59E7     		b	.L10
 521              	.LVL58:
 522              	.L46:
 252:Drivers/STM32H7xx_HAL_Driver/Src/stm32h7xx_hal_gpio.c ****         SYSCFG->EXTICR[position >> 2U] = temp;
 523              		.loc 1 252 40 view .LVU204
 524 0232 0826     		movs	r6, #8
 525 0234 06FA09F6 		lsl	r6, r6, r9
 252:Drivers/STM32H7xx_HAL_Driver/Src/stm32h7xx_hal_gpio.c ****         SYSCFG->EXTICR[position >> 2U] = temp;
 526              		.loc 1 252 14 view .LVU205
 527 0238 3243     		orrs	r2, r2, r6
 528              	.LVL59:
 252:Drivers/STM32H7xx_HAL_Driver/Src/stm32h7xx_hal_gpio.c ****         SYSCFG->EXTICR[position >> 2U] = temp;
 529              		.loc 1 252 14 view .LVU206
 530 023a 54E7     		b	.L10
ARM GAS  C:\Users\Simon\AppData\Local\Temp\ccLenkVj.s 			page 18


 531              	.L48:
 532              		.align	2
 533              	.L47:
 534 023c 00440258 		.word	1476543488
 535 0240 00000258 		.word	1476526080
 536 0244 00080258 		.word	1476528128
 537 0248 000C0258 		.word	1476529152
 538 024c 00100258 		.word	1476530176
 539 0250 00140258 		.word	1476531200
 540 0254 00180258 		.word	1476532224
 541 0258 001C0258 		.word	1476533248
 542 025c 00200258 		.word	1476534272
 543 0260 00240258 		.word	1476535296
 544              		.cfi_endproc
 545              	.LFE144:
 547              		.section	.text.HAL_GPIO_DeInit,"ax",%progbits
 548              		.align	1
 549              		.p2align 2,,3
 550              		.global	HAL_GPIO_DeInit
 551              		.syntax unified
 552              		.thumb
 553              		.thumb_func
 555              	HAL_GPIO_DeInit:
 556              	.LVL60:
 557              	.LFB145:
 294:Drivers/STM32H7xx_HAL_Driver/Src/stm32h7xx_hal_gpio.c **** 
 295:Drivers/STM32H7xx_HAL_Driver/Src/stm32h7xx_hal_gpio.c **** /**
 296:Drivers/STM32H7xx_HAL_Driver/Src/stm32h7xx_hal_gpio.c ****   * @brief  De-initializes the GPIOx peripheral registers to their default reset values.
 297:Drivers/STM32H7xx_HAL_Driver/Src/stm32h7xx_hal_gpio.c ****   * @param  GPIOx: where x can be (A..K) to select the GPIO peripheral.
 298:Drivers/STM32H7xx_HAL_Driver/Src/stm32h7xx_hal_gpio.c ****   * @param  GPIO_Pin: specifies the port bit to be written.
 299:Drivers/STM32H7xx_HAL_Driver/Src/stm32h7xx_hal_gpio.c ****   *          This parameter can be one of GPIO_PIN_x where x can be (0..15).
 300:Drivers/STM32H7xx_HAL_Driver/Src/stm32h7xx_hal_gpio.c ****   * @retval None
 301:Drivers/STM32H7xx_HAL_Driver/Src/stm32h7xx_hal_gpio.c ****   */
 302:Drivers/STM32H7xx_HAL_Driver/Src/stm32h7xx_hal_gpio.c **** void HAL_GPIO_DeInit(GPIO_TypeDef  *GPIOx, uint32_t GPIO_Pin)
 303:Drivers/STM32H7xx_HAL_Driver/Src/stm32h7xx_hal_gpio.c **** {
 558              		.loc 1 303 1 is_stmt 1 view -0
 559              		.cfi_startproc
 560              		@ args = 0, pretend = 0, frame = 8
 561              		@ frame_needed = 0, uses_anonymous_args = 0
 304:Drivers/STM32H7xx_HAL_Driver/Src/stm32h7xx_hal_gpio.c ****   uint32_t position = 0x00U;
 562              		.loc 1 304 3 view .LVU208
 305:Drivers/STM32H7xx_HAL_Driver/Src/stm32h7xx_hal_gpio.c ****   uint32_t iocurrent;
 563              		.loc 1 305 3 view .LVU209
 306:Drivers/STM32H7xx_HAL_Driver/Src/stm32h7xx_hal_gpio.c ****   uint32_t tmp;
 564              		.loc 1 306 3 view .LVU210
 307:Drivers/STM32H7xx_HAL_Driver/Src/stm32h7xx_hal_gpio.c ****   EXTI_Core_TypeDef *EXTI_CurrentCPU;
 565              		.loc 1 307 3 view .LVU211
 308:Drivers/STM32H7xx_HAL_Driver/Src/stm32h7xx_hal_gpio.c **** 
 309:Drivers/STM32H7xx_HAL_Driver/Src/stm32h7xx_hal_gpio.c **** #if defined(DUAL_CORE) && defined(CORE_CM4)
 310:Drivers/STM32H7xx_HAL_Driver/Src/stm32h7xx_hal_gpio.c ****   EXTI_CurrentCPU = EXTI_D2; /* EXTI for CM4 CPU */
 311:Drivers/STM32H7xx_HAL_Driver/Src/stm32h7xx_hal_gpio.c **** #else
 312:Drivers/STM32H7xx_HAL_Driver/Src/stm32h7xx_hal_gpio.c ****   EXTI_CurrentCPU = EXTI_D1; /* EXTI for CM7 CPU */
 566              		.loc 1 312 3 view .LVU212
 313:Drivers/STM32H7xx_HAL_Driver/Src/stm32h7xx_hal_gpio.c **** #endif
 314:Drivers/STM32H7xx_HAL_Driver/Src/stm32h7xx_hal_gpio.c **** 
 315:Drivers/STM32H7xx_HAL_Driver/Src/stm32h7xx_hal_gpio.c ****   /* Check the parameters */
 316:Drivers/STM32H7xx_HAL_Driver/Src/stm32h7xx_hal_gpio.c ****   assert_param(IS_GPIO_ALL_INSTANCE(GPIOx));
ARM GAS  C:\Users\Simon\AppData\Local\Temp\ccLenkVj.s 			page 19


 567              		.loc 1 316 3 view .LVU213
 317:Drivers/STM32H7xx_HAL_Driver/Src/stm32h7xx_hal_gpio.c ****   assert_param(IS_GPIO_PIN(GPIO_Pin));
 568              		.loc 1 317 3 view .LVU214
 318:Drivers/STM32H7xx_HAL_Driver/Src/stm32h7xx_hal_gpio.c **** 
 319:Drivers/STM32H7xx_HAL_Driver/Src/stm32h7xx_hal_gpio.c ****   /* Configure the port pins */
 320:Drivers/STM32H7xx_HAL_Driver/Src/stm32h7xx_hal_gpio.c ****   while ((GPIO_Pin >> position) != 0x00U)
 569              		.loc 1 320 3 view .LVU215
 570              		.loc 1 320 33 view .LVU216
 571 0000 0029     		cmp	r1, #0
 572 0002 00F0A480 		beq	.L71
 304:Drivers/STM32H7xx_HAL_Driver/Src/stm32h7xx_hal_gpio.c ****   uint32_t iocurrent;
 573              		.loc 1 304 12 is_stmt 0 view .LVU217
 574 0006 0023     		movs	r3, #0
 303:Drivers/STM32H7xx_HAL_Driver/Src/stm32h7xx_hal_gpio.c ****   uint32_t position = 0x00U;
 575              		.loc 1 303 1 view .LVU218
 576 0008 2DE9F04F 		push	{r4, r5, r6, r7, r8, r9, r10, fp, lr}
 577              	.LCFI4:
 578              		.cfi_def_cfa_offset 36
 579              		.cfi_offset 4, -36
 580              		.cfi_offset 5, -32
 581              		.cfi_offset 6, -28
 582              		.cfi_offset 7, -24
 583              		.cfi_offset 8, -20
 584              		.cfi_offset 9, -16
 585              		.cfi_offset 10, -12
 586              		.cfi_offset 11, -8
 587              		.cfi_offset 14, -4
 588 000c DFF86891 		ldr	r9, .L82+20
 589 0010 83B0     		sub	sp, sp, #12
 590              	.LCFI5:
 591              		.cfi_def_cfa_offset 48
 321:Drivers/STM32H7xx_HAL_Driver/Src/stm32h7xx_hal_gpio.c ****   {
 322:Drivers/STM32H7xx_HAL_Driver/Src/stm32h7xx_hal_gpio.c ****     /* Get current io position */
 323:Drivers/STM32H7xx_HAL_Driver/Src/stm32h7xx_hal_gpio.c ****     iocurrent = GPIO_Pin & (1UL << position) ;
 324:Drivers/STM32H7xx_HAL_Driver/Src/stm32h7xx_hal_gpio.c **** 
 325:Drivers/STM32H7xx_HAL_Driver/Src/stm32h7xx_hal_gpio.c ****     if (iocurrent != 0x00U)
 326:Drivers/STM32H7xx_HAL_Driver/Src/stm32h7xx_hal_gpio.c ****     {
 327:Drivers/STM32H7xx_HAL_Driver/Src/stm32h7xx_hal_gpio.c ****       /*------------------------- EXTI Mode Configuration --------------------*/
 328:Drivers/STM32H7xx_HAL_Driver/Src/stm32h7xx_hal_gpio.c ****       /* Clear the External Interrupt or Event for the current IO */
 329:Drivers/STM32H7xx_HAL_Driver/Src/stm32h7xx_hal_gpio.c ****       tmp = SYSCFG->EXTICR[position >> 2U];
 330:Drivers/STM32H7xx_HAL_Driver/Src/stm32h7xx_hal_gpio.c ****       tmp &= (0x0FUL << (4U * (position & 0x03U)));
 331:Drivers/STM32H7xx_HAL_Driver/Src/stm32h7xx_hal_gpio.c ****       if (tmp == (GPIO_GET_INDEX(GPIOx) << (4U * (position & 0x03U))))
 592              		.loc 1 331 19 view .LVU219
 593 0012 DFF86881 		ldr	r8, .L82+24
 594 0016 DFF868A1 		ldr	r10, .L82+28
 595 001a DFF868B1 		ldr	fp, .L82+32
 596              	.LVL61:
 597              	.L50:
 323:Drivers/STM32H7xx_HAL_Driver/Src/stm32h7xx_hal_gpio.c **** 
 598              		.loc 1 323 5 is_stmt 1 view .LVU220
 323:Drivers/STM32H7xx_HAL_Driver/Src/stm32h7xx_hal_gpio.c **** 
 599              		.loc 1 323 33 is_stmt 0 view .LVU221
 600 001e 4FF0010E 		mov	lr, #1
 601 0022 0EFA03F2 		lsl	r2, lr, r3
 602              	.LVL62:
 325:Drivers/STM32H7xx_HAL_Driver/Src/stm32h7xx_hal_gpio.c ****     {
 603              		.loc 1 325 5 is_stmt 1 view .LVU222
ARM GAS  C:\Users\Simon\AppData\Local\Temp\ccLenkVj.s 			page 20


 325:Drivers/STM32H7xx_HAL_Driver/Src/stm32h7xx_hal_gpio.c ****     {
 604              		.loc 1 325 8 is_stmt 0 view .LVU223
 605 0026 12EA010C 		ands	ip, r2, r1
 606              	.LVL63:
 325:Drivers/STM32H7xx_HAL_Driver/Src/stm32h7xx_hal_gpio.c ****     {
 607              		.loc 1 325 8 view .LVU224
 608 002a 6BD0     		beq	.L51
 329:Drivers/STM32H7xx_HAL_Driver/Src/stm32h7xx_hal_gpio.c ****       tmp &= (0x0FUL << (4U * (position & 0x03U)));
 609              		.loc 1 329 7 is_stmt 1 view .LVU225
 610 002c 23F00305 		bic	r5, r3, #3
 330:Drivers/STM32H7xx_HAL_Driver/Src/stm32h7xx_hal_gpio.c ****       if (tmp == (GPIO_GET_INDEX(GPIOx) << (4U * (position & 0x03U))))
 611              		.loc 1 330 41 is_stmt 0 view .LVU226
 612 0030 03F00304 		and	r4, r3, #3
 330:Drivers/STM32H7xx_HAL_Driver/Src/stm32h7xx_hal_gpio.c ****       if (tmp == (GPIO_GET_INDEX(GPIOx) << (4U * (position & 0x03U))))
 613              		.loc 1 330 22 view .LVU227
 614 0034 0F26     		movs	r6, #15
 615              		.loc 1 331 19 view .LVU228
 616 0036 4045     		cmp	r0, r8
 617 0038 4D44     		add	r5, r5, r9
 330:Drivers/STM32H7xx_HAL_Driver/Src/stm32h7xx_hal_gpio.c ****       if (tmp == (GPIO_GET_INDEX(GPIOx) << (4U * (position & 0x03U))))
 618              		.loc 1 330 29 view .LVU229
 619 003a 4FEA8404 		lsl	r4, r4, #2
 329:Drivers/STM32H7xx_HAL_Driver/Src/stm32h7xx_hal_gpio.c ****       tmp &= (0x0FUL << (4U * (position & 0x03U)));
 620              		.loc 1 329 11 view .LVU230
 621 003e AF68     		ldr	r7, [r5, #8]
 622              	.LVL64:
 330:Drivers/STM32H7xx_HAL_Driver/Src/stm32h7xx_hal_gpio.c ****       if (tmp == (GPIO_GET_INDEX(GPIOx) << (4U * (position & 0x03U))))
 623              		.loc 1 330 7 is_stmt 1 view .LVU231
 330:Drivers/STM32H7xx_HAL_Driver/Src/stm32h7xx_hal_gpio.c ****       if (tmp == (GPIO_GET_INDEX(GPIOx) << (4U * (position & 0x03U))))
 624              		.loc 1 330 22 is_stmt 0 view .LVU232
 625 0040 06FA04F6 		lsl	r6, r6, r4
 330:Drivers/STM32H7xx_HAL_Driver/Src/stm32h7xx_hal_gpio.c ****       if (tmp == (GPIO_GET_INDEX(GPIOx) << (4U * (position & 0x03U))))
 626              		.loc 1 330 11 view .LVU233
 627 0044 07EA0607 		and	r7, r7, r6
 628              	.LVL65:
 330:Drivers/STM32H7xx_HAL_Driver/Src/stm32h7xx_hal_gpio.c ****       if (tmp == (GPIO_GET_INDEX(GPIOx) << (4U * (position & 0x03U))))
 629              		.loc 1 330 11 view .LVU234
 630 0048 0197     		str	r7, [sp, #4]
 631              	.LVL66:
 632              		.loc 1 331 7 is_stmt 1 view .LVU235
 633              		.loc 1 331 19 is_stmt 0 view .LVU236
 634 004a 1FD0     		beq	.L65
 635              		.loc 1 331 19 discriminator 1 view .LVU237
 636 004c 5045     		cmp	r0, r10
 637 004e 1AD0     		beq	.L74
 638              		.loc 1 331 19 discriminator 3 view .LVU238
 639 0050 5845     		cmp	r0, fp
 640 0052 5ED0     		beq	.L75
 641              		.loc 1 331 19 discriminator 5 view .LVU239
 642 0054 434F     		ldr	r7, .L82
 643              	.LVL67:
 644              		.loc 1 331 19 discriminator 5 view .LVU240
 645 0056 B842     		cmp	r0, r7
 646 0058 65D0     		beq	.L76
 647              		.loc 1 331 19 discriminator 7 view .LVU241
 648 005a 434F     		ldr	r7, .L82+4
 649 005c B842     		cmp	r0, r7
ARM GAS  C:\Users\Simon\AppData\Local\Temp\ccLenkVj.s 			page 21


 650 005e 67D0     		beq	.L77
 651              		.loc 1 331 19 discriminator 9 view .LVU242
 652 0060 424F     		ldr	r7, .L82+8
 653 0062 B842     		cmp	r0, r7
 654 0064 5AD0     		beq	.L78
 655              		.loc 1 331 19 discriminator 11 view .LVU243
 656 0066 424F     		ldr	r7, .L82+12
 657 0068 B842     		cmp	r0, r7
 658 006a 6BD0     		beq	.L79
 659              		.loc 1 331 19 discriminator 13 view .LVU244
 660 006c 414F     		ldr	r7, .L82+16
 661 006e B842     		cmp	r0, r7
 662 0070 6ED0     		beq	.L80
 663              		.loc 1 331 19 discriminator 15 view .LVU245
 664 0072 DFF814E1 		ldr	lr, .L82+36
 665 0076 7045     		cmp	r0, lr
 666 0078 5FD0     		beq	.L81
 667              		.loc 1 331 19 discriminator 17 view .LVU246
 668 007a DFF810E1 		ldr	lr, .L82+40
 669 007e 7045     		cmp	r0, lr
 670 0080 6BD0     		beq	.L61
 671              		.loc 1 331 41 view .LVU247
 672 0082 4FF00A0E 		mov	lr, #10
 673              	.L74:
 674 0086 0EFA04F4 		lsl	r4, lr, r4
 675 008a 00E0     		b	.L52
 676              	.LVL68:
 677              	.L65:
 678              		.loc 1 331 41 view .LVU248
 679 008c 0024     		movs	r4, #0
 680              	.LVL69:
 681              	.L52:
 682              		.loc 1 331 10 discriminator 40 view .LVU249
 683 008e 019F     		ldr	r7, [sp, #4]
 684 0090 A742     		cmp	r7, r4
 685 0092 19D1     		bne	.L62
 332:Drivers/STM32H7xx_HAL_Driver/Src/stm32h7xx_hal_gpio.c ****       {
 333:Drivers/STM32H7xx_HAL_Driver/Src/stm32h7xx_hal_gpio.c ****         /* Clear EXTI line configuration for Current CPU */
 334:Drivers/STM32H7xx_HAL_Driver/Src/stm32h7xx_hal_gpio.c ****         EXTI_CurrentCPU->IMR1 &= ~(iocurrent);
 686              		.loc 1 334 9 is_stmt 1 view .LVU250
 687              		.loc 1 334 31 is_stmt 0 view .LVU251
 688 0094 4FF0B044 		mov	r4, #1476395008
 689 0098 D4F88070 		ldr	r7, [r4, #128]
 690 009c 27EA0C07 		bic	r7, r7, ip
 691 00a0 C4F88070 		str	r7, [r4, #128]
 335:Drivers/STM32H7xx_HAL_Driver/Src/stm32h7xx_hal_gpio.c ****         EXTI_CurrentCPU->EMR1 &= ~(iocurrent);
 692              		.loc 1 335 9 is_stmt 1 view .LVU252
 693              		.loc 1 335 31 is_stmt 0 view .LVU253
 694 00a4 D4F88470 		ldr	r7, [r4, #132]
 695 00a8 27EA0C07 		bic	r7, r7, ip
 696 00ac C4F88470 		str	r7, [r4, #132]
 336:Drivers/STM32H7xx_HAL_Driver/Src/stm32h7xx_hal_gpio.c **** 
 337:Drivers/STM32H7xx_HAL_Driver/Src/stm32h7xx_hal_gpio.c ****         /* Clear Rising Falling edge configuration */
 338:Drivers/STM32H7xx_HAL_Driver/Src/stm32h7xx_hal_gpio.c ****         EXTI->FTSR1 &= ~(iocurrent);
 697              		.loc 1 338 9 is_stmt 1 view .LVU254
 698              		.loc 1 338 21 is_stmt 0 view .LVU255
 699 00b0 6768     		ldr	r7, [r4, #4]
ARM GAS  C:\Users\Simon\AppData\Local\Temp\ccLenkVj.s 			page 22


 700 00b2 27EA0C07 		bic	r7, r7, ip
 701 00b6 6760     		str	r7, [r4, #4]
 339:Drivers/STM32H7xx_HAL_Driver/Src/stm32h7xx_hal_gpio.c ****         EXTI->RTSR1 &= ~(iocurrent);
 702              		.loc 1 339 9 is_stmt 1 view .LVU256
 703              		.loc 1 339 21 is_stmt 0 view .LVU257
 704 00b8 2768     		ldr	r7, [r4]
 705 00ba 27EA0C07 		bic	r7, r7, ip
 706 00be 2760     		str	r7, [r4]
 340:Drivers/STM32H7xx_HAL_Driver/Src/stm32h7xx_hal_gpio.c **** 
 341:Drivers/STM32H7xx_HAL_Driver/Src/stm32h7xx_hal_gpio.c ****         tmp = 0x0FUL << (4U * (position & 0x03U));
 707              		.loc 1 341 9 is_stmt 1 view .LVU258
 708              	.LVL70:
 342:Drivers/STM32H7xx_HAL_Driver/Src/stm32h7xx_hal_gpio.c ****         SYSCFG->EXTICR[position >> 2U] &= ~tmp;
 709              		.loc 1 342 9 view .LVU259
 710              		.loc 1 342 40 is_stmt 0 view .LVU260
 711 00c0 AC68     		ldr	r4, [r5, #8]
 712 00c2 24EA0604 		bic	r4, r4, r6
 713 00c6 AC60     		str	r4, [r5, #8]
 714              	.LVL71:
 715              	.L62:
 343:Drivers/STM32H7xx_HAL_Driver/Src/stm32h7xx_hal_gpio.c ****       }
 344:Drivers/STM32H7xx_HAL_Driver/Src/stm32h7xx_hal_gpio.c **** 
 345:Drivers/STM32H7xx_HAL_Driver/Src/stm32h7xx_hal_gpio.c ****       /*------------------------- GPIO Mode Configuration --------------------*/
 346:Drivers/STM32H7xx_HAL_Driver/Src/stm32h7xx_hal_gpio.c ****       /* Configure IO in Analog Mode */
 347:Drivers/STM32H7xx_HAL_Driver/Src/stm32h7xx_hal_gpio.c ****       GPIOx->MODER |= (GPIO_MODER_MODE0 << (position * 2U));
 716              		.loc 1 347 7 is_stmt 1 view .LVU261
 717              		.loc 1 347 41 is_stmt 0 view .LVU262
 718 00c8 5D00     		lsls	r5, r3, #1
 719 00ca 0324     		movs	r4, #3
 348:Drivers/STM32H7xx_HAL_Driver/Src/stm32h7xx_hal_gpio.c **** 
 349:Drivers/STM32H7xx_HAL_Driver/Src/stm32h7xx_hal_gpio.c ****       /* Configure the default Alternate Function in current IO */
 350:Drivers/STM32H7xx_HAL_Driver/Src/stm32h7xx_hal_gpio.c ****       GPIOx->AFR[position >> 3U] &= ~(0xFU << ((position & 0x07U) * 4U)) ;
 720              		.loc 1 350 58 view .LVU263
 721 00cc 03F00706 		and	r6, r3, #7
 722              		.loc 1 350 44 view .LVU264
 723 00d0 0F27     		movs	r7, #15
 347:Drivers/STM32H7xx_HAL_Driver/Src/stm32h7xx_hal_gpio.c **** 
 724              		.loc 1 347 41 view .LVU265
 725 00d2 AC40     		lsls	r4, r4, r5
 347:Drivers/STM32H7xx_HAL_Driver/Src/stm32h7xx_hal_gpio.c **** 
 726              		.loc 1 347 20 view .LVU266
 727 00d4 0568     		ldr	r5, [r0]
 728              		.loc 1 350 67 view .LVU267
 729 00d6 B600     		lsls	r6, r6, #2
 347:Drivers/STM32H7xx_HAL_Driver/Src/stm32h7xx_hal_gpio.c **** 
 730              		.loc 1 347 20 view .LVU268
 731 00d8 2543     		orrs	r5, r5, r4
 732              		.loc 1 350 44 view .LVU269
 733 00da B740     		lsls	r7, r7, r6
 347:Drivers/STM32H7xx_HAL_Driver/Src/stm32h7xx_hal_gpio.c **** 
 734              		.loc 1 347 20 view .LVU270
 735 00dc 0560     		str	r5, [r0]
 736              		.loc 1 350 7 is_stmt 1 view .LVU271
 737              		.loc 1 350 34 is_stmt 0 view .LVU272
 738 00de DD08     		lsrs	r5, r3, #3
 739 00e0 00EB8505 		add	r5, r0, r5, lsl #2
 740 00e4 2E6A     		ldr	r6, [r5, #32]
ARM GAS  C:\Users\Simon\AppData\Local\Temp\ccLenkVj.s 			page 23


 741 00e6 26EA0706 		bic	r6, r6, r7
 742 00ea 2E62     		str	r6, [r5, #32]
 351:Drivers/STM32H7xx_HAL_Driver/Src/stm32h7xx_hal_gpio.c **** 
 352:Drivers/STM32H7xx_HAL_Driver/Src/stm32h7xx_hal_gpio.c ****       /* Deactivate the Pull-up and Pull-down resistor for the current IO */
 353:Drivers/STM32H7xx_HAL_Driver/Src/stm32h7xx_hal_gpio.c ****       GPIOx->PUPDR &= ~(GPIO_PUPDR_PUPD0 << (position * 2U));
 743              		.loc 1 353 7 is_stmt 1 view .LVU273
 744              		.loc 1 353 20 is_stmt 0 view .LVU274
 745 00ec C568     		ldr	r5, [r0, #12]
 746 00ee 25EA0405 		bic	r5, r5, r4
 747 00f2 C560     		str	r5, [r0, #12]
 354:Drivers/STM32H7xx_HAL_Driver/Src/stm32h7xx_hal_gpio.c **** 
 355:Drivers/STM32H7xx_HAL_Driver/Src/stm32h7xx_hal_gpio.c ****       /* Configure the default value IO Output Type */
 356:Drivers/STM32H7xx_HAL_Driver/Src/stm32h7xx_hal_gpio.c ****       GPIOx->OTYPER  &= ~(GPIO_OTYPER_OT0 << position) ;
 748              		.loc 1 356 7 is_stmt 1 view .LVU275
 749              		.loc 1 356 22 is_stmt 0 view .LVU276
 750 00f4 4568     		ldr	r5, [r0, #4]
 751 00f6 25EA0202 		bic	r2, r5, r2
 752 00fa 4260     		str	r2, [r0, #4]
 357:Drivers/STM32H7xx_HAL_Driver/Src/stm32h7xx_hal_gpio.c **** 
 358:Drivers/STM32H7xx_HAL_Driver/Src/stm32h7xx_hal_gpio.c ****       /* Configure the default value for IO Speed */
 359:Drivers/STM32H7xx_HAL_Driver/Src/stm32h7xx_hal_gpio.c ****       GPIOx->OSPEEDR &= ~(GPIO_OSPEEDR_OSPEED0 << (position * 2U));
 753              		.loc 1 359 7 is_stmt 1 view .LVU277
 754              		.loc 1 359 22 is_stmt 0 view .LVU278
 755 00fc 8268     		ldr	r2, [r0, #8]
 756 00fe 22EA0402 		bic	r2, r2, r4
 757 0102 8260     		str	r2, [r0, #8]
 758              	.L51:
 360:Drivers/STM32H7xx_HAL_Driver/Src/stm32h7xx_hal_gpio.c ****     }
 361:Drivers/STM32H7xx_HAL_Driver/Src/stm32h7xx_hal_gpio.c **** 
 362:Drivers/STM32H7xx_HAL_Driver/Src/stm32h7xx_hal_gpio.c ****     position++;
 759              		.loc 1 362 5 is_stmt 1 view .LVU279
 760              		.loc 1 362 13 is_stmt 0 view .LVU280
 761 0104 0133     		adds	r3, r3, #1
 762              	.LVL72:
 320:Drivers/STM32H7xx_HAL_Driver/Src/stm32h7xx_hal_gpio.c ****   {
 763              		.loc 1 320 33 is_stmt 1 view .LVU281
 764 0106 31FA03F2 		lsrs	r2, r1, r3
 765 010a 88D1     		bne	.L50
 363:Drivers/STM32H7xx_HAL_Driver/Src/stm32h7xx_hal_gpio.c ****   }
 364:Drivers/STM32H7xx_HAL_Driver/Src/stm32h7xx_hal_gpio.c **** }
 766              		.loc 1 364 1 is_stmt 0 view .LVU282
 767 010c 03B0     		add	sp, sp, #12
 768              	.LCFI6:
 769              		.cfi_remember_state
 770              		.cfi_def_cfa_offset 36
 771              		@ sp needed
 772 010e BDE8F08F 		pop	{r4, r5, r6, r7, r8, r9, r10, fp, pc}
 773              	.LVL73:
 774              	.L75:
 775              	.LCFI7:
 776              		.cfi_restore_state
 331:Drivers/STM32H7xx_HAL_Driver/Src/stm32h7xx_hal_gpio.c ****       {
 777              		.loc 1 331 41 view .LVU283
 778 0112 4FF0020E 		mov	lr, #2
 779 0116 0EFA04F4 		lsl	r4, lr, r4
 780 011a B8E7     		b	.L52
 781              	.LVL74:
ARM GAS  C:\Users\Simon\AppData\Local\Temp\ccLenkVj.s 			page 24


 782              	.L78:
 331:Drivers/STM32H7xx_HAL_Driver/Src/stm32h7xx_hal_gpio.c ****       {
 783              		.loc 1 331 41 view .LVU284
 784 011c 4FF0050E 		mov	lr, #5
 785 0120 0EFA04F4 		lsl	r4, lr, r4
 786 0124 B3E7     		b	.L52
 787              	.L76:
 788 0126 4FF0030E 		mov	lr, #3
 789 012a 0EFA04F4 		lsl	r4, lr, r4
 790 012e AEE7     		b	.L52
 791              	.L77:
 792 0130 4FF0040E 		mov	lr, #4
 793 0134 0EFA04F4 		lsl	r4, lr, r4
 794 0138 A9E7     		b	.L52
 795              	.L81:
 796 013a 4FF0080E 		mov	lr, #8
 797 013e 0EFA04F4 		lsl	r4, lr, r4
 798 0142 A4E7     		b	.L52
 799              	.L79:
 800 0144 4FF0060E 		mov	lr, #6
 801 0148 0EFA04F4 		lsl	r4, lr, r4
 802 014c 9FE7     		b	.L52
 803              	.LVL75:
 804              	.L71:
 805              	.LCFI8:
 806              		.cfi_def_cfa_offset 0
 807              		.cfi_restore 4
 808              		.cfi_restore 5
 809              		.cfi_restore 6
 810              		.cfi_restore 7
 811              		.cfi_restore 8
 812              		.cfi_restore 9
 813              		.cfi_restore 10
 814              		.cfi_restore 11
 815              		.cfi_restore 14
 331:Drivers/STM32H7xx_HAL_Driver/Src/stm32h7xx_hal_gpio.c ****       {
 816              		.loc 1 331 41 view .LVU285
 817 014e 7047     		bx	lr
 818              	.LVL76:
 819              	.L80:
 820              	.LCFI9:
 821              		.cfi_def_cfa_offset 48
 822              		.cfi_offset 4, -36
 823              		.cfi_offset 5, -32
 824              		.cfi_offset 6, -28
 825              		.cfi_offset 7, -24
 826              		.cfi_offset 8, -20
 827              		.cfi_offset 9, -16
 828              		.cfi_offset 10, -12
 829              		.cfi_offset 11, -8
 830              		.cfi_offset 14, -4
 331:Drivers/STM32H7xx_HAL_Driver/Src/stm32h7xx_hal_gpio.c ****       {
 831              		.loc 1 331 41 view .LVU286
 832 0150 4FF0070E 		mov	lr, #7
 833 0154 0EFA04F4 		lsl	r4, lr, r4
 834 0158 99E7     		b	.L52
 835              	.L61:
ARM GAS  C:\Users\Simon\AppData\Local\Temp\ccLenkVj.s 			page 25


 836 015a 4FF0090E 		mov	lr, #9
 837 015e 0EFA04F4 		lsl	r4, lr, r4
 838 0162 94E7     		b	.L52
 839              	.L83:
 840              		.align	2
 841              	.L82:
 842 0164 000C0258 		.word	1476529152
 843 0168 00100258 		.word	1476530176
 844 016c 00140258 		.word	1476531200
 845 0170 00180258 		.word	1476532224
 846 0174 001C0258 		.word	1476533248
 847 0178 00040058 		.word	1476396032
 848 017c 00000258 		.word	1476526080
 849 0180 00040258 		.word	1476527104
 850 0184 00080258 		.word	1476528128
 851 0188 00200258 		.word	1476534272
 852 018c 00240258 		.word	1476535296
 853              		.cfi_endproc
 854              	.LFE145:
 856              		.section	.text.HAL_GPIO_ReadPin,"ax",%progbits
 857              		.align	1
 858              		.p2align 2,,3
 859              		.global	HAL_GPIO_ReadPin
 860              		.syntax unified
 861              		.thumb
 862              		.thumb_func
 864              	HAL_GPIO_ReadPin:
 865              	.LVL77:
 866              	.LFB146:
 365:Drivers/STM32H7xx_HAL_Driver/Src/stm32h7xx_hal_gpio.c **** 
 366:Drivers/STM32H7xx_HAL_Driver/Src/stm32h7xx_hal_gpio.c **** /**
 367:Drivers/STM32H7xx_HAL_Driver/Src/stm32h7xx_hal_gpio.c ****   * @}
 368:Drivers/STM32H7xx_HAL_Driver/Src/stm32h7xx_hal_gpio.c ****   */
 369:Drivers/STM32H7xx_HAL_Driver/Src/stm32h7xx_hal_gpio.c **** 
 370:Drivers/STM32H7xx_HAL_Driver/Src/stm32h7xx_hal_gpio.c **** /** @defgroup GPIO_Exported_Functions_Group2 IO operation functions
 371:Drivers/STM32H7xx_HAL_Driver/Src/stm32h7xx_hal_gpio.c ****  *  @brief GPIO Read, Write, Toggle, Lock and EXTI management functions.
 372:Drivers/STM32H7xx_HAL_Driver/Src/stm32h7xx_hal_gpio.c ****  *
 373:Drivers/STM32H7xx_HAL_Driver/Src/stm32h7xx_hal_gpio.c **** @verbatim
 374:Drivers/STM32H7xx_HAL_Driver/Src/stm32h7xx_hal_gpio.c ****  ===============================================================================
 375:Drivers/STM32H7xx_HAL_Driver/Src/stm32h7xx_hal_gpio.c ****                        ##### IO operation functions #####
 376:Drivers/STM32H7xx_HAL_Driver/Src/stm32h7xx_hal_gpio.c ****  ===============================================================================
 377:Drivers/STM32H7xx_HAL_Driver/Src/stm32h7xx_hal_gpio.c **** 
 378:Drivers/STM32H7xx_HAL_Driver/Src/stm32h7xx_hal_gpio.c **** @endverbatim
 379:Drivers/STM32H7xx_HAL_Driver/Src/stm32h7xx_hal_gpio.c ****   * @{
 380:Drivers/STM32H7xx_HAL_Driver/Src/stm32h7xx_hal_gpio.c ****   */
 381:Drivers/STM32H7xx_HAL_Driver/Src/stm32h7xx_hal_gpio.c **** 
 382:Drivers/STM32H7xx_HAL_Driver/Src/stm32h7xx_hal_gpio.c **** /**
 383:Drivers/STM32H7xx_HAL_Driver/Src/stm32h7xx_hal_gpio.c ****   * @brief  Reads the specified input port pin.
 384:Drivers/STM32H7xx_HAL_Driver/Src/stm32h7xx_hal_gpio.c ****   * @param  GPIOx: where x can be (A..K) to select the GPIO peripheral.
 385:Drivers/STM32H7xx_HAL_Driver/Src/stm32h7xx_hal_gpio.c ****   * @param  GPIO_Pin: specifies the port bit to read.
 386:Drivers/STM32H7xx_HAL_Driver/Src/stm32h7xx_hal_gpio.c ****   *         This parameter can be GPIO_PIN_x where x can be (0..15).
 387:Drivers/STM32H7xx_HAL_Driver/Src/stm32h7xx_hal_gpio.c ****   * @retval The input port pin value.
 388:Drivers/STM32H7xx_HAL_Driver/Src/stm32h7xx_hal_gpio.c ****   */
 389:Drivers/STM32H7xx_HAL_Driver/Src/stm32h7xx_hal_gpio.c **** GPIO_PinState HAL_GPIO_ReadPin(GPIO_TypeDef *GPIOx, uint16_t GPIO_Pin)
 390:Drivers/STM32H7xx_HAL_Driver/Src/stm32h7xx_hal_gpio.c **** {
 867              		.loc 1 390 1 is_stmt 1 view -0
 868              		.cfi_startproc
ARM GAS  C:\Users\Simon\AppData\Local\Temp\ccLenkVj.s 			page 26


 869              		@ args = 0, pretend = 0, frame = 0
 870              		@ frame_needed = 0, uses_anonymous_args = 0
 871              		@ link register save eliminated.
 391:Drivers/STM32H7xx_HAL_Driver/Src/stm32h7xx_hal_gpio.c ****   GPIO_PinState bitstatus;
 872              		.loc 1 391 3 view .LVU288
 392:Drivers/STM32H7xx_HAL_Driver/Src/stm32h7xx_hal_gpio.c **** 
 393:Drivers/STM32H7xx_HAL_Driver/Src/stm32h7xx_hal_gpio.c ****   /* Check the parameters */
 394:Drivers/STM32H7xx_HAL_Driver/Src/stm32h7xx_hal_gpio.c ****   assert_param(IS_GPIO_PIN(GPIO_Pin));
 873              		.loc 1 394 3 view .LVU289
 395:Drivers/STM32H7xx_HAL_Driver/Src/stm32h7xx_hal_gpio.c **** 
 396:Drivers/STM32H7xx_HAL_Driver/Src/stm32h7xx_hal_gpio.c ****   if ((GPIOx->IDR & GPIO_Pin) != 0x00U)
 874              		.loc 1 396 3 view .LVU290
 875              		.loc 1 396 13 is_stmt 0 view .LVU291
 876 0000 0369     		ldr	r3, [r0, #16]
 877              	.LVL78:
 397:Drivers/STM32H7xx_HAL_Driver/Src/stm32h7xx_hal_gpio.c ****   {
 398:Drivers/STM32H7xx_HAL_Driver/Src/stm32h7xx_hal_gpio.c ****     bitstatus = GPIO_PIN_SET;
 399:Drivers/STM32H7xx_HAL_Driver/Src/stm32h7xx_hal_gpio.c ****   }
 400:Drivers/STM32H7xx_HAL_Driver/Src/stm32h7xx_hal_gpio.c ****   else
 401:Drivers/STM32H7xx_HAL_Driver/Src/stm32h7xx_hal_gpio.c ****   {
 402:Drivers/STM32H7xx_HAL_Driver/Src/stm32h7xx_hal_gpio.c ****     bitstatus = GPIO_PIN_RESET;
 403:Drivers/STM32H7xx_HAL_Driver/Src/stm32h7xx_hal_gpio.c ****   }
 404:Drivers/STM32H7xx_HAL_Driver/Src/stm32h7xx_hal_gpio.c ****   return bitstatus;
 878              		.loc 1 404 3 is_stmt 1 view .LVU292
 396:Drivers/STM32H7xx_HAL_Driver/Src/stm32h7xx_hal_gpio.c ****   {
 879              		.loc 1 396 6 is_stmt 0 view .LVU293
 880 0002 1942     		tst	r1, r3
 405:Drivers/STM32H7xx_HAL_Driver/Src/stm32h7xx_hal_gpio.c **** }
 881              		.loc 1 405 1 view .LVU294
 882 0004 14BF     		ite	ne
 883 0006 0120     		movne	r0, #1
 884              	.LVL79:
 885              		.loc 1 405 1 view .LVU295
 886 0008 0020     		moveq	r0, #0
 887 000a 7047     		bx	lr
 888              		.cfi_endproc
 889              	.LFE146:
 891              		.section	.text.HAL_GPIO_WritePin,"ax",%progbits
 892              		.align	1
 893              		.p2align 2,,3
 894              		.global	HAL_GPIO_WritePin
 895              		.syntax unified
 896              		.thumb
 897              		.thumb_func
 899              	HAL_GPIO_WritePin:
 900              	.LVL80:
 901              	.LFB147:
 406:Drivers/STM32H7xx_HAL_Driver/Src/stm32h7xx_hal_gpio.c **** 
 407:Drivers/STM32H7xx_HAL_Driver/Src/stm32h7xx_hal_gpio.c **** /**
 408:Drivers/STM32H7xx_HAL_Driver/Src/stm32h7xx_hal_gpio.c ****   * @brief  Sets or clears the selected data port bit.
 409:Drivers/STM32H7xx_HAL_Driver/Src/stm32h7xx_hal_gpio.c ****   *
 410:Drivers/STM32H7xx_HAL_Driver/Src/stm32h7xx_hal_gpio.c ****   * @note   This function uses GPIOx_BSRR register to allow atomic read/modify
 411:Drivers/STM32H7xx_HAL_Driver/Src/stm32h7xx_hal_gpio.c ****   *         accesses. In this way, there is no risk of an IRQ occurring between
 412:Drivers/STM32H7xx_HAL_Driver/Src/stm32h7xx_hal_gpio.c ****   *         the read and the modify access.
 413:Drivers/STM32H7xx_HAL_Driver/Src/stm32h7xx_hal_gpio.c ****   *
 414:Drivers/STM32H7xx_HAL_Driver/Src/stm32h7xx_hal_gpio.c ****   * @param  GPIOx: where x can be (A..K) to select the GPIO peripheral.
 415:Drivers/STM32H7xx_HAL_Driver/Src/stm32h7xx_hal_gpio.c ****   * @param  GPIO_Pin: specifies the port bit to be written.
ARM GAS  C:\Users\Simon\AppData\Local\Temp\ccLenkVj.s 			page 27


 416:Drivers/STM32H7xx_HAL_Driver/Src/stm32h7xx_hal_gpio.c ****   *          This parameter can be one of GPIO_PIN_x where x can be (0..15).
 417:Drivers/STM32H7xx_HAL_Driver/Src/stm32h7xx_hal_gpio.c ****   * @param  PinState: specifies the value to be written to the selected bit.
 418:Drivers/STM32H7xx_HAL_Driver/Src/stm32h7xx_hal_gpio.c ****   *          This parameter can be one of the GPIO_PinState enum values:
 419:Drivers/STM32H7xx_HAL_Driver/Src/stm32h7xx_hal_gpio.c ****   *            @arg GPIO_PIN_RESET: to clear the port pin
 420:Drivers/STM32H7xx_HAL_Driver/Src/stm32h7xx_hal_gpio.c ****   *            @arg GPIO_PIN_SET: to set the port pin
 421:Drivers/STM32H7xx_HAL_Driver/Src/stm32h7xx_hal_gpio.c ****   * @retval None
 422:Drivers/STM32H7xx_HAL_Driver/Src/stm32h7xx_hal_gpio.c ****   */
 423:Drivers/STM32H7xx_HAL_Driver/Src/stm32h7xx_hal_gpio.c **** void HAL_GPIO_WritePin(GPIO_TypeDef *GPIOx, uint16_t GPIO_Pin, GPIO_PinState PinState)
 424:Drivers/STM32H7xx_HAL_Driver/Src/stm32h7xx_hal_gpio.c **** {
 902              		.loc 1 424 1 is_stmt 1 view -0
 903              		.cfi_startproc
 904              		@ args = 0, pretend = 0, frame = 0
 905              		@ frame_needed = 0, uses_anonymous_args = 0
 906              		@ link register save eliminated.
 425:Drivers/STM32H7xx_HAL_Driver/Src/stm32h7xx_hal_gpio.c ****   /* Check the parameters */
 426:Drivers/STM32H7xx_HAL_Driver/Src/stm32h7xx_hal_gpio.c ****   assert_param(IS_GPIO_PIN(GPIO_Pin));
 907              		.loc 1 426 3 view .LVU297
 427:Drivers/STM32H7xx_HAL_Driver/Src/stm32h7xx_hal_gpio.c ****   assert_param(IS_GPIO_PIN_ACTION(PinState));
 908              		.loc 1 427 3 view .LVU298
 428:Drivers/STM32H7xx_HAL_Driver/Src/stm32h7xx_hal_gpio.c **** 
 429:Drivers/STM32H7xx_HAL_Driver/Src/stm32h7xx_hal_gpio.c ****   if (PinState != GPIO_PIN_RESET)
 909              		.loc 1 429 3 view .LVU299
 910              		.loc 1 429 6 is_stmt 0 view .LVU300
 911 0000 02B9     		cbnz	r2, .L88
 430:Drivers/STM32H7xx_HAL_Driver/Src/stm32h7xx_hal_gpio.c ****   {
 431:Drivers/STM32H7xx_HAL_Driver/Src/stm32h7xx_hal_gpio.c ****     GPIOx->BSRR = GPIO_Pin;
 432:Drivers/STM32H7xx_HAL_Driver/Src/stm32h7xx_hal_gpio.c ****   }
 433:Drivers/STM32H7xx_HAL_Driver/Src/stm32h7xx_hal_gpio.c ****   else
 434:Drivers/STM32H7xx_HAL_Driver/Src/stm32h7xx_hal_gpio.c ****   {
 435:Drivers/STM32H7xx_HAL_Driver/Src/stm32h7xx_hal_gpio.c ****     GPIOx->BSRR = (uint32_t)GPIO_Pin << GPIO_NUMBER;
 912              		.loc 1 435 5 is_stmt 1 view .LVU301
 913              		.loc 1 435 38 is_stmt 0 view .LVU302
 914 0002 0904     		lsls	r1, r1, #16
 915              	.LVL81:
 916              	.L88:
 917              		.loc 1 435 17 view .LVU303
 918 0004 8161     		str	r1, [r0, #24]
 436:Drivers/STM32H7xx_HAL_Driver/Src/stm32h7xx_hal_gpio.c ****   }
 437:Drivers/STM32H7xx_HAL_Driver/Src/stm32h7xx_hal_gpio.c **** }
 919              		.loc 1 437 1 view .LVU304
 920 0006 7047     		bx	lr
 921              		.cfi_endproc
 922              	.LFE147:
 924              		.section	.text.HAL_GPIO_TogglePin,"ax",%progbits
 925              		.align	1
 926              		.p2align 2,,3
 927              		.global	HAL_GPIO_TogglePin
 928              		.syntax unified
 929              		.thumb
 930              		.thumb_func
 932              	HAL_GPIO_TogglePin:
 933              	.LVL82:
 934              	.LFB148:
 438:Drivers/STM32H7xx_HAL_Driver/Src/stm32h7xx_hal_gpio.c **** 
 439:Drivers/STM32H7xx_HAL_Driver/Src/stm32h7xx_hal_gpio.c **** /**
 440:Drivers/STM32H7xx_HAL_Driver/Src/stm32h7xx_hal_gpio.c ****   * @brief  Toggles the specified GPIO pins.
 441:Drivers/STM32H7xx_HAL_Driver/Src/stm32h7xx_hal_gpio.c ****   * @param  GPIOx: Where x can be (A..K) to select the GPIO peripheral.
ARM GAS  C:\Users\Simon\AppData\Local\Temp\ccLenkVj.s 			page 28


 442:Drivers/STM32H7xx_HAL_Driver/Src/stm32h7xx_hal_gpio.c ****   * @param  GPIO_Pin: Specifies the pins to be toggled.
 443:Drivers/STM32H7xx_HAL_Driver/Src/stm32h7xx_hal_gpio.c ****   * @retval None
 444:Drivers/STM32H7xx_HAL_Driver/Src/stm32h7xx_hal_gpio.c ****   */
 445:Drivers/STM32H7xx_HAL_Driver/Src/stm32h7xx_hal_gpio.c **** void HAL_GPIO_TogglePin(GPIO_TypeDef *GPIOx, uint16_t GPIO_Pin)
 446:Drivers/STM32H7xx_HAL_Driver/Src/stm32h7xx_hal_gpio.c **** {
 935              		.loc 1 446 1 is_stmt 1 view -0
 936              		.cfi_startproc
 937              		@ args = 0, pretend = 0, frame = 0
 938              		@ frame_needed = 0, uses_anonymous_args = 0
 939              		@ link register save eliminated.
 447:Drivers/STM32H7xx_HAL_Driver/Src/stm32h7xx_hal_gpio.c ****   uint32_t odr;
 940              		.loc 1 447 3 view .LVU306
 448:Drivers/STM32H7xx_HAL_Driver/Src/stm32h7xx_hal_gpio.c **** 
 449:Drivers/STM32H7xx_HAL_Driver/Src/stm32h7xx_hal_gpio.c ****   /* Check the parameters */
 450:Drivers/STM32H7xx_HAL_Driver/Src/stm32h7xx_hal_gpio.c ****   assert_param(IS_GPIO_PIN(GPIO_Pin));
 941              		.loc 1 450 3 view .LVU307
 451:Drivers/STM32H7xx_HAL_Driver/Src/stm32h7xx_hal_gpio.c **** 
 452:Drivers/STM32H7xx_HAL_Driver/Src/stm32h7xx_hal_gpio.c ****   /* get current Output Data Register value */
 453:Drivers/STM32H7xx_HAL_Driver/Src/stm32h7xx_hal_gpio.c ****   odr = GPIOx->ODR;
 942              		.loc 1 453 3 view .LVU308
 943              		.loc 1 453 7 is_stmt 0 view .LVU309
 944 0000 4369     		ldr	r3, [r0, #20]
 945              	.LVL83:
 454:Drivers/STM32H7xx_HAL_Driver/Src/stm32h7xx_hal_gpio.c **** 
 455:Drivers/STM32H7xx_HAL_Driver/Src/stm32h7xx_hal_gpio.c ****   /* Set selected pins that were at low level, and reset ones that were high */
 456:Drivers/STM32H7xx_HAL_Driver/Src/stm32h7xx_hal_gpio.c ****   GPIOx->BSRR = ((odr & GPIO_Pin) << GPIO_NUMBER) | (~odr & GPIO_Pin);
 946              		.loc 1 456 3 is_stmt 1 view .LVU310
 947              		.loc 1 456 23 is_stmt 0 view .LVU311
 948 0002 01EA0302 		and	r2, r1, r3
 949              		.loc 1 456 59 view .LVU312
 950 0006 21EA0301 		bic	r1, r1, r3
 951              	.LVL84:
 952              		.loc 1 456 51 view .LVU313
 953 000a 41EA0241 		orr	r1, r1, r2, lsl #16
 954              		.loc 1 456 15 view .LVU314
 955 000e 8161     		str	r1, [r0, #24]
 457:Drivers/STM32H7xx_HAL_Driver/Src/stm32h7xx_hal_gpio.c **** }
 956              		.loc 1 457 1 view .LVU315
 957 0010 7047     		bx	lr
 958              		.cfi_endproc
 959              	.LFE148:
 961 0012 00BF     		.section	.text.HAL_GPIO_LockPin,"ax",%progbits
 962              		.align	1
 963              		.p2align 2,,3
 964              		.global	HAL_GPIO_LockPin
 965              		.syntax unified
 966              		.thumb
 967              		.thumb_func
 969              	HAL_GPIO_LockPin:
 970              	.LVL85:
 971              	.LFB149:
 458:Drivers/STM32H7xx_HAL_Driver/Src/stm32h7xx_hal_gpio.c **** 
 459:Drivers/STM32H7xx_HAL_Driver/Src/stm32h7xx_hal_gpio.c **** /**
 460:Drivers/STM32H7xx_HAL_Driver/Src/stm32h7xx_hal_gpio.c ****   * @brief  Locks GPIO Pins configuration registers.
 461:Drivers/STM32H7xx_HAL_Driver/Src/stm32h7xx_hal_gpio.c ****   * @note   The locked registers are GPIOx_MODER, GPIOx_OTYPER, GPIOx_OSPEEDR,
 462:Drivers/STM32H7xx_HAL_Driver/Src/stm32h7xx_hal_gpio.c ****   *         GPIOx_PUPDR, GPIOx_AFRL and GPIOx_AFRH.
 463:Drivers/STM32H7xx_HAL_Driver/Src/stm32h7xx_hal_gpio.c ****   * @note   The configuration of the locked GPIO pins can no longer be modified
ARM GAS  C:\Users\Simon\AppData\Local\Temp\ccLenkVj.s 			page 29


 464:Drivers/STM32H7xx_HAL_Driver/Src/stm32h7xx_hal_gpio.c ****   *         until the next reset.
 465:Drivers/STM32H7xx_HAL_Driver/Src/stm32h7xx_hal_gpio.c ****   * @param  GPIOx: where x can be (A..K) to select the GPIO peripheral for STM32H7 family
 466:Drivers/STM32H7xx_HAL_Driver/Src/stm32h7xx_hal_gpio.c ****   * @param  GPIO_Pin: specifies the port bit to be locked.
 467:Drivers/STM32H7xx_HAL_Driver/Src/stm32h7xx_hal_gpio.c ****   *         This parameter can be any combination of GPIO_PIN_x where x can be (0..15).
 468:Drivers/STM32H7xx_HAL_Driver/Src/stm32h7xx_hal_gpio.c ****   * @retval None
 469:Drivers/STM32H7xx_HAL_Driver/Src/stm32h7xx_hal_gpio.c ****   */
 470:Drivers/STM32H7xx_HAL_Driver/Src/stm32h7xx_hal_gpio.c **** HAL_StatusTypeDef HAL_GPIO_LockPin(GPIO_TypeDef *GPIOx, uint16_t GPIO_Pin)
 471:Drivers/STM32H7xx_HAL_Driver/Src/stm32h7xx_hal_gpio.c **** {
 972              		.loc 1 471 1 is_stmt 1 view -0
 973              		.cfi_startproc
 974              		@ args = 0, pretend = 0, frame = 8
 975              		@ frame_needed = 0, uses_anonymous_args = 0
 976              		@ link register save eliminated.
 472:Drivers/STM32H7xx_HAL_Driver/Src/stm32h7xx_hal_gpio.c ****   __IO uint32_t tmp = GPIO_LCKR_LCKK;
 977              		.loc 1 472 3 view .LVU317
 471:Drivers/STM32H7xx_HAL_Driver/Src/stm32h7xx_hal_gpio.c ****   __IO uint32_t tmp = GPIO_LCKR_LCKK;
 978              		.loc 1 471 1 is_stmt 0 view .LVU318
 979 0000 82B0     		sub	sp, sp, #8
 980              	.LCFI10:
 981              		.cfi_def_cfa_offset 8
 982              		.loc 1 472 17 view .LVU319
 983 0002 4FF48033 		mov	r3, #65536
 984 0006 0193     		str	r3, [sp, #4]
 473:Drivers/STM32H7xx_HAL_Driver/Src/stm32h7xx_hal_gpio.c **** 
 474:Drivers/STM32H7xx_HAL_Driver/Src/stm32h7xx_hal_gpio.c ****   /* Check the parameters */
 475:Drivers/STM32H7xx_HAL_Driver/Src/stm32h7xx_hal_gpio.c ****   assert_param(IS_GPIO_LOCK_INSTANCE(GPIOx));
 985              		.loc 1 475 3 is_stmt 1 view .LVU320
 476:Drivers/STM32H7xx_HAL_Driver/Src/stm32h7xx_hal_gpio.c ****   assert_param(IS_GPIO_PIN(GPIO_Pin));
 986              		.loc 1 476 3 view .LVU321
 477:Drivers/STM32H7xx_HAL_Driver/Src/stm32h7xx_hal_gpio.c **** 
 478:Drivers/STM32H7xx_HAL_Driver/Src/stm32h7xx_hal_gpio.c ****   /* Apply lock key write sequence */
 479:Drivers/STM32H7xx_HAL_Driver/Src/stm32h7xx_hal_gpio.c ****   tmp |= GPIO_Pin;
 987              		.loc 1 479 3 view .LVU322
 988              		.loc 1 479 7 is_stmt 0 view .LVU323
 989 0008 019B     		ldr	r3, [sp, #4]
 990 000a 0B43     		orrs	r3, r3, r1
 991 000c 0193     		str	r3, [sp, #4]
 480:Drivers/STM32H7xx_HAL_Driver/Src/stm32h7xx_hal_gpio.c ****   /* Set LCKx bit(s): LCKK='1' + LCK[15-0] */
 481:Drivers/STM32H7xx_HAL_Driver/Src/stm32h7xx_hal_gpio.c ****   GPIOx->LCKR = tmp;
 992              		.loc 1 481 3 is_stmt 1 view .LVU324
 993              		.loc 1 481 15 is_stmt 0 view .LVU325
 994 000e 019B     		ldr	r3, [sp, #4]
 995 0010 C361     		str	r3, [r0, #28]
 482:Drivers/STM32H7xx_HAL_Driver/Src/stm32h7xx_hal_gpio.c ****   /* Reset LCKx bit(s): LCKK='0' + LCK[15-0] */
 483:Drivers/STM32H7xx_HAL_Driver/Src/stm32h7xx_hal_gpio.c ****   GPIOx->LCKR = GPIO_Pin;
 996              		.loc 1 483 3 is_stmt 1 view .LVU326
 997              		.loc 1 483 15 is_stmt 0 view .LVU327
 998 0012 C161     		str	r1, [r0, #28]
 484:Drivers/STM32H7xx_HAL_Driver/Src/stm32h7xx_hal_gpio.c ****   /* Set LCKx bit(s): LCKK='1' + LCK[15-0] */
 485:Drivers/STM32H7xx_HAL_Driver/Src/stm32h7xx_hal_gpio.c ****   GPIOx->LCKR = tmp;
 999              		.loc 1 485 3 is_stmt 1 view .LVU328
 1000              		.loc 1 485 15 is_stmt 0 view .LVU329
 1001 0014 019B     		ldr	r3, [sp, #4]
 1002 0016 C361     		str	r3, [r0, #28]
 486:Drivers/STM32H7xx_HAL_Driver/Src/stm32h7xx_hal_gpio.c ****   /* Read LCKK register. This read is mandatory to complete key lock sequence*/
 487:Drivers/STM32H7xx_HAL_Driver/Src/stm32h7xx_hal_gpio.c ****   tmp = GPIOx->LCKR;
 1003              		.loc 1 487 3 is_stmt 1 view .LVU330
ARM GAS  C:\Users\Simon\AppData\Local\Temp\ccLenkVj.s 			page 30


 1004              		.loc 1 487 14 is_stmt 0 view .LVU331
 1005 0018 C369     		ldr	r3, [r0, #28]
 1006              		.loc 1 487 7 view .LVU332
 1007 001a 0193     		str	r3, [sp, #4]
 488:Drivers/STM32H7xx_HAL_Driver/Src/stm32h7xx_hal_gpio.c **** 
 489:Drivers/STM32H7xx_HAL_Driver/Src/stm32h7xx_hal_gpio.c ****   /* read again in order to confirm lock is active */
 490:Drivers/STM32H7xx_HAL_Driver/Src/stm32h7xx_hal_gpio.c ****   if ((GPIOx->LCKR & GPIO_LCKR_LCKK) != 0x00U)
 1008              		.loc 1 490 3 is_stmt 1 view .LVU333
 1009              		.loc 1 490 13 is_stmt 0 view .LVU334
 1010 001c C069     		ldr	r0, [r0, #28]
 1011              	.LVL86:
 1012              		.loc 1 490 6 view .LVU335
 1013 001e 80F48030 		eor	r0, r0, #65536
 491:Drivers/STM32H7xx_HAL_Driver/Src/stm32h7xx_hal_gpio.c ****   {
 492:Drivers/STM32H7xx_HAL_Driver/Src/stm32h7xx_hal_gpio.c ****     return HAL_OK;
 493:Drivers/STM32H7xx_HAL_Driver/Src/stm32h7xx_hal_gpio.c ****   }
 494:Drivers/STM32H7xx_HAL_Driver/Src/stm32h7xx_hal_gpio.c ****   else
 495:Drivers/STM32H7xx_HAL_Driver/Src/stm32h7xx_hal_gpio.c ****   {
 496:Drivers/STM32H7xx_HAL_Driver/Src/stm32h7xx_hal_gpio.c ****     return HAL_ERROR;
 497:Drivers/STM32H7xx_HAL_Driver/Src/stm32h7xx_hal_gpio.c ****   }
 498:Drivers/STM32H7xx_HAL_Driver/Src/stm32h7xx_hal_gpio.c **** }
 1014              		.loc 1 498 1 view .LVU336
 1015 0022 C0F30040 		ubfx	r0, r0, #16, #1
 1016 0026 02B0     		add	sp, sp, #8
 1017              	.LCFI11:
 1018              		.cfi_def_cfa_offset 0
 1019              		@ sp needed
 1020 0028 7047     		bx	lr
 1021              		.cfi_endproc
 1022              	.LFE149:
 1024 002a 00BF     		.section	.text.HAL_GPIO_EXTI_Callback,"ax",%progbits
 1025              		.align	1
 1026              		.p2align 2,,3
 1027              		.weak	HAL_GPIO_EXTI_Callback
 1028              		.syntax unified
 1029              		.thumb
 1030              		.thumb_func
 1032              	HAL_GPIO_EXTI_Callback:
 1033              	.LVL87:
 1034              	.LFB151:
 499:Drivers/STM32H7xx_HAL_Driver/Src/stm32h7xx_hal_gpio.c **** 
 500:Drivers/STM32H7xx_HAL_Driver/Src/stm32h7xx_hal_gpio.c **** /**
 501:Drivers/STM32H7xx_HAL_Driver/Src/stm32h7xx_hal_gpio.c ****   * @brief  Handle EXTI interrupt request.
 502:Drivers/STM32H7xx_HAL_Driver/Src/stm32h7xx_hal_gpio.c ****   * @param  GPIO_Pin: Specifies the port pin connected to corresponding EXTI line.
 503:Drivers/STM32H7xx_HAL_Driver/Src/stm32h7xx_hal_gpio.c ****   * @retval None
 504:Drivers/STM32H7xx_HAL_Driver/Src/stm32h7xx_hal_gpio.c ****   */
 505:Drivers/STM32H7xx_HAL_Driver/Src/stm32h7xx_hal_gpio.c **** void HAL_GPIO_EXTI_IRQHandler(uint16_t GPIO_Pin)
 506:Drivers/STM32H7xx_HAL_Driver/Src/stm32h7xx_hal_gpio.c **** {
 507:Drivers/STM32H7xx_HAL_Driver/Src/stm32h7xx_hal_gpio.c **** #if defined(DUAL_CORE) && defined(CORE_CM4)
 508:Drivers/STM32H7xx_HAL_Driver/Src/stm32h7xx_hal_gpio.c ****   if (__HAL_GPIO_EXTID2_GET_IT(GPIO_Pin) != 0x00U)
 509:Drivers/STM32H7xx_HAL_Driver/Src/stm32h7xx_hal_gpio.c ****   {
 510:Drivers/STM32H7xx_HAL_Driver/Src/stm32h7xx_hal_gpio.c ****     __HAL_GPIO_EXTID2_CLEAR_IT(GPIO_Pin);
 511:Drivers/STM32H7xx_HAL_Driver/Src/stm32h7xx_hal_gpio.c ****     HAL_GPIO_EXTI_Callback(GPIO_Pin);
 512:Drivers/STM32H7xx_HAL_Driver/Src/stm32h7xx_hal_gpio.c ****   }
 513:Drivers/STM32H7xx_HAL_Driver/Src/stm32h7xx_hal_gpio.c **** #else
 514:Drivers/STM32H7xx_HAL_Driver/Src/stm32h7xx_hal_gpio.c ****   /* EXTI line interrupt detected */
 515:Drivers/STM32H7xx_HAL_Driver/Src/stm32h7xx_hal_gpio.c ****   if (__HAL_GPIO_EXTI_GET_IT(GPIO_Pin) != 0x00U)
ARM GAS  C:\Users\Simon\AppData\Local\Temp\ccLenkVj.s 			page 31


 516:Drivers/STM32H7xx_HAL_Driver/Src/stm32h7xx_hal_gpio.c ****   {
 517:Drivers/STM32H7xx_HAL_Driver/Src/stm32h7xx_hal_gpio.c ****     __HAL_GPIO_EXTI_CLEAR_IT(GPIO_Pin);
 518:Drivers/STM32H7xx_HAL_Driver/Src/stm32h7xx_hal_gpio.c ****     HAL_GPIO_EXTI_Callback(GPIO_Pin);
 519:Drivers/STM32H7xx_HAL_Driver/Src/stm32h7xx_hal_gpio.c ****   }
 520:Drivers/STM32H7xx_HAL_Driver/Src/stm32h7xx_hal_gpio.c **** #endif
 521:Drivers/STM32H7xx_HAL_Driver/Src/stm32h7xx_hal_gpio.c **** }
 522:Drivers/STM32H7xx_HAL_Driver/Src/stm32h7xx_hal_gpio.c **** 
 523:Drivers/STM32H7xx_HAL_Driver/Src/stm32h7xx_hal_gpio.c **** /**
 524:Drivers/STM32H7xx_HAL_Driver/Src/stm32h7xx_hal_gpio.c ****   * @brief  EXTI line detection callback.
 525:Drivers/STM32H7xx_HAL_Driver/Src/stm32h7xx_hal_gpio.c ****   * @param  GPIO_Pin: Specifies the port pin connected to corresponding EXTI line.
 526:Drivers/STM32H7xx_HAL_Driver/Src/stm32h7xx_hal_gpio.c ****   * @retval None
 527:Drivers/STM32H7xx_HAL_Driver/Src/stm32h7xx_hal_gpio.c ****   */
 528:Drivers/STM32H7xx_HAL_Driver/Src/stm32h7xx_hal_gpio.c **** __weak void HAL_GPIO_EXTI_Callback(uint16_t GPIO_Pin)
 529:Drivers/STM32H7xx_HAL_Driver/Src/stm32h7xx_hal_gpio.c **** {
 1035              		.loc 1 529 1 is_stmt 1 view -0
 1036              		.cfi_startproc
 1037              		@ args = 0, pretend = 0, frame = 0
 1038              		@ frame_needed = 0, uses_anonymous_args = 0
 1039              		@ link register save eliminated.
 530:Drivers/STM32H7xx_HAL_Driver/Src/stm32h7xx_hal_gpio.c ****   /* Prevent unused argument(s) compilation warning */
 531:Drivers/STM32H7xx_HAL_Driver/Src/stm32h7xx_hal_gpio.c ****   UNUSED(GPIO_Pin);
 1040              		.loc 1 531 3 view .LVU338
 532:Drivers/STM32H7xx_HAL_Driver/Src/stm32h7xx_hal_gpio.c **** 
 533:Drivers/STM32H7xx_HAL_Driver/Src/stm32h7xx_hal_gpio.c ****   /* NOTE: This function Should not be modified, when the callback is needed,
 534:Drivers/STM32H7xx_HAL_Driver/Src/stm32h7xx_hal_gpio.c ****            the HAL_GPIO_EXTI_Callback could be implemented in the user file
 535:Drivers/STM32H7xx_HAL_Driver/Src/stm32h7xx_hal_gpio.c ****    */
 536:Drivers/STM32H7xx_HAL_Driver/Src/stm32h7xx_hal_gpio.c **** }
 1041              		.loc 1 536 1 is_stmt 0 view .LVU339
 1042 0000 7047     		bx	lr
 1043              		.cfi_endproc
 1044              	.LFE151:
 1046 0002 00BF     		.section	.text.HAL_GPIO_EXTI_IRQHandler,"ax",%progbits
 1047              		.align	1
 1048              		.p2align 2,,3
 1049              		.global	HAL_GPIO_EXTI_IRQHandler
 1050              		.syntax unified
 1051              		.thumb
 1052              		.thumb_func
 1054              	HAL_GPIO_EXTI_IRQHandler:
 1055              	.LVL88:
 1056              	.LFB150:
 506:Drivers/STM32H7xx_HAL_Driver/Src/stm32h7xx_hal_gpio.c **** #if defined(DUAL_CORE) && defined(CORE_CM4)
 1057              		.loc 1 506 1 is_stmt 1 view -0
 1058              		.cfi_startproc
 1059              		@ args = 0, pretend = 0, frame = 0
 1060              		@ frame_needed = 0, uses_anonymous_args = 0
 515:Drivers/STM32H7xx_HAL_Driver/Src/stm32h7xx_hal_gpio.c ****   {
 1061              		.loc 1 515 3 view .LVU341
 515:Drivers/STM32H7xx_HAL_Driver/Src/stm32h7xx_hal_gpio.c ****   {
 1062              		.loc 1 515 7 is_stmt 0 view .LVU342
 1063 0000 4FF0B042 		mov	r2, #1476395008
 1064 0004 D2F88810 		ldr	r1, [r2, #136]
 515:Drivers/STM32H7xx_HAL_Driver/Src/stm32h7xx_hal_gpio.c ****   {
 1065              		.loc 1 515 6 view .LVU343
 1066 0008 0142     		tst	r1, r0
 1067 000a 00D1     		bne	.L102
 1068 000c 7047     		bx	lr
ARM GAS  C:\Users\Simon\AppData\Local\Temp\ccLenkVj.s 			page 32


 1069              	.L102:
 517:Drivers/STM32H7xx_HAL_Driver/Src/stm32h7xx_hal_gpio.c ****     HAL_GPIO_EXTI_Callback(GPIO_Pin);
 1070              		.loc 1 517 5 is_stmt 1 view .LVU344
 506:Drivers/STM32H7xx_HAL_Driver/Src/stm32h7xx_hal_gpio.c **** #if defined(DUAL_CORE) && defined(CORE_CM4)
 1071              		.loc 1 506 1 is_stmt 0 view .LVU345
 1072 000e 08B5     		push	{r3, lr}
 1073              	.LCFI12:
 1074              		.cfi_def_cfa_offset 8
 1075              		.cfi_offset 3, -8
 1076              		.cfi_offset 14, -4
 517:Drivers/STM32H7xx_HAL_Driver/Src/stm32h7xx_hal_gpio.c ****     HAL_GPIO_EXTI_Callback(GPIO_Pin);
 1077              		.loc 1 517 5 view .LVU346
 1078 0010 C2F88800 		str	r0, [r2, #136]
 518:Drivers/STM32H7xx_HAL_Driver/Src/stm32h7xx_hal_gpio.c ****   }
 1079              		.loc 1 518 5 is_stmt 1 view .LVU347
 1080 0014 FFF7FEFF 		bl	HAL_GPIO_EXTI_Callback
 1081              	.LVL89:
 521:Drivers/STM32H7xx_HAL_Driver/Src/stm32h7xx_hal_gpio.c **** 
 1082              		.loc 1 521 1 is_stmt 0 view .LVU348
 1083 0018 08BD     		pop	{r3, pc}
 1084              		.cfi_endproc
 1085              	.LFE150:
 1087 001a 00BF     		.text
 1088              	.Letext0:
 1089              		.file 2 "c:\\program files (x86)\\arm gnu toolchain arm-none-eabi\\11.2 2022.02\\arm-none-eabi\\in
 1090              		.file 3 "c:\\program files (x86)\\arm gnu toolchain arm-none-eabi\\11.2 2022.02\\arm-none-eabi\\in
 1091              		.file 4 "Drivers/CMSIS/Device/ST/STM32H7xx/Include/stm32h743xx.h"
 1092              		.file 5 "Drivers/STM32H7xx_HAL_Driver/Inc/stm32h7xx_hal_def.h"
 1093              		.file 6 "Drivers/STM32H7xx_HAL_Driver/Inc/stm32h7xx_hal_gpio.h"
ARM GAS  C:\Users\Simon\AppData\Local\Temp\ccLenkVj.s 			page 33

